ARM GAS  C:\Users\MIGUEL\AppData\Local\Temp\ccp6cAZ1.s 			page 1


   1              		.syntax unified
   2              		.cpu cortex-m3
   3              		.fpu softvfp
   4              		.eabi_attribute 20, 1
   5              		.eabi_attribute 21, 1
   6              		.eabi_attribute 23, 3
   7              		.eabi_attribute 24, 1
   8              		.eabi_attribute 25, 1
   9              		.eabi_attribute 26, 1
  10              		.eabi_attribute 30, 1
  11              		.eabi_attribute 34, 1
  12              		.eabi_attribute 18, 4
  13              		.thumb
  14              		.syntax unified
  15              		.file	"main.c"
  16              		.text
  17              	.Ltext0:
  18              		.cfi_sections	.debug_frame
  19              		.section	.text.contar,"ax",%progbits
  20              		.align	2
  21              		.global	contar
  22              		.thumb
  23              		.thumb_func
  24              		.type	contar, %function
  25              	contar:
  26              	.LFB65:
  27              		.file 1 "main.c"
   1:main.c        **** /* ========================================
   2:main.c        ****  *
   3:main.c        ****  * Proyecto final Bioinsttrumentación
   4:main.c        ****  *
   5:main.c        ****  * ========================================
   6:main.c        **** */
   7:main.c        **** #include "project.h"
   8:main.c        **** #include <stdio.h>
   9:main.c        **** #include <stdlib.h>
  10:main.c        **** 
  11:main.c        **** uint8_t lectura=0;
  12:main.c        **** uint8_t bandera=0;
  13:main.c        **** int fl=0;
  14:main.c        **** uint8 seg=0;
  15:main.c        **** uint8 h=0;
  16:main.c        **** uint8 min=0;
  17:main.c        **** uint16 mili=0;
  18:main.c        **** uint8 timer=0;
  19:main.c        **** uint16 c=0;
  20:main.c        **** uint8 seg5=0;
  21:main.c        **** uint8 band_7seg=0;
  22:main.c        **** uint8 band_5seg=0;
  23:main.c        **** uint8 band_lcd=0;
  24:main.c        **** uint8 a_seg5=0;
  25:main.c        **** char time[4]="0000";
  26:main.c        **** char seg_7[4];
  27:main.c        **** uint8_t lectura_p='b';
  28:main.c        **** char seggs[50];
  29:main.c        **** uint16 compare=999;
  30:main.c        **** uint8 band_aumento=0;
ARM GAS  C:\Users\MIGUEL\AppData\Local\Temp\ccp6cAZ1.s 			page 2


  31:main.c        **** uint8 band_dismi=0;
  32:main.c        **** uint8 seg10=0;
  33:main.c        **** uint8 band_10seg=0;
  34:main.c        **** uint8 a_seg10=0;
  35:main.c        **** int16 vol,en; 
  36:main.c        **** float tem;
  37:main.c        **** uint8 band_tem=0; 
  38:main.c        **** uint8 band_aviso=0;
  39:main.c        **** uint8 ledval[] = {0b00011, 0b00111, 0b01111, 0b11111};
  40:main.c        **** uint8 ledindx = 0;
  41:main.c        **** uint8 direc=0;
  42:main.c        **** 
  43:main.c        **** void sec_leds(){
  44:main.c        **** aviso_Write(ledval[ledindx]);
  45:main.c        **** switch(ledindx){
  46:main.c        **** case 3:
  47:main.c        ****     direc=1;
  48:main.c        ****     break;
  49:main.c        **** case 0:
  50:main.c        ****     direc=0;
  51:main.c        ****     break;
  52:main.c        **** }
  53:main.c        **** switch(direc){
  54:main.c        **** case 1:
  55:main.c        ****     ledindx--;
  56:main.c        ****     break;
  57:main.c        **** case 0:
  58:main.c        ****     ledindx++;
  59:main.c        ****     break;
  60:main.c        **** }
  61:main.c        **** 
  62:main.c        **** }
  63:main.c        **** 
  64:main.c        **** CY_ISR_PROTO(contar);
  65:main.c        **** CY_ISR(contar){
  28              		.loc 1 65 0
  29              		.cfi_startproc
  30              		@ args = 0, pretend = 0, frame = 0
  31              		@ frame_needed = 0, uses_anonymous_args = 0
  32              		@ link register save eliminated.
  66:main.c        ****     timer=1;
  33              		.loc 1 66 0
  34 0000 0122     		movs	r2, #1
  35 0002 014B     		ldr	r3, .L2
  36 0004 1A70     		strb	r2, [r3]
  37 0006 7047     		bx	lr
  38              	.L3:
  39              		.align	2
  40              	.L2:
  41 0008 00000000 		.word	.LANCHOR0
  42              		.cfi_endproc
  43              	.LFE65:
  44              		.size	contar, .-contar
  45              		.section	.text.aumento,"ax",%progbits
  46              		.align	2
  47              		.global	aumento
  48              		.thumb
ARM GAS  C:\Users\MIGUEL\AppData\Local\Temp\ccp6cAZ1.s 			page 3


  49              		.thumb_func
  50              		.type	aumento, %function
  51              	aumento:
  52              	.LFB67:
  67:main.c        **** }
  68:main.c        **** 
  69:main.c        **** CY_ISR(datos){
  70:main.c        ****     lectura=UART_1_GetChar();
  71:main.c        ****     bandera=1;
  72:main.c        **** }
  73:main.c        **** 
  74:main.c        **** CY_ISR(aumento){
  53              		.loc 1 74 0
  54              		.cfi_startproc
  55              		@ args = 0, pretend = 0, frame = 0
  56              		@ frame_needed = 0, uses_anonymous_args = 0
  57              		@ link register save eliminated.
  75:main.c        ****     band_aumento=1;
  58              		.loc 1 75 0
  59 0000 0122     		movs	r2, #1
  60 0002 014B     		ldr	r3, .L5
  61 0004 5A70     		strb	r2, [r3, #1]
  62 0006 7047     		bx	lr
  63              	.L6:
  64              		.align	2
  65              	.L5:
  66 0008 00000000 		.word	.LANCHOR0
  67              		.cfi_endproc
  68              	.LFE67:
  69              		.size	aumento, .-aumento
  70              		.section	.text.disminu,"ax",%progbits
  71              		.align	2
  72              		.global	disminu
  73              		.thumb
  74              		.thumb_func
  75              		.type	disminu, %function
  76              	disminu:
  77              	.LFB68:
  76:main.c        **** }
  77:main.c        **** 
  78:main.c        **** CY_ISR(disminu){
  78              		.loc 1 78 0
  79              		.cfi_startproc
  80              		@ args = 0, pretend = 0, frame = 0
  81              		@ frame_needed = 0, uses_anonymous_args = 0
  82              		@ link register save eliminated.
  79:main.c        ****     band_dismi=1;
  83              		.loc 1 79 0
  84 0000 0122     		movs	r2, #1
  85 0002 014B     		ldr	r3, .L8
  86 0004 9A70     		strb	r2, [r3, #2]
  87 0006 7047     		bx	lr
  88              	.L9:
  89              		.align	2
  90              	.L8:
  91 0008 00000000 		.word	.LANCHOR0
  92              		.cfi_endproc
ARM GAS  C:\Users\MIGUEL\AppData\Local\Temp\ccp6cAZ1.s 			page 4


  93              	.LFE68:
  94              		.size	disminu, .-disminu
  95              		.section	.text.datos,"ax",%progbits
  96              		.align	2
  97              		.global	datos
  98              		.thumb
  99              		.thumb_func
 100              		.type	datos, %function
 101              	datos:
 102              	.LFB66:
  69:main.c        ****     lectura=UART_1_GetChar();
 103              		.loc 1 69 0
 104              		.cfi_startproc
 105              		@ args = 0, pretend = 0, frame = 0
 106              		@ frame_needed = 0, uses_anonymous_args = 0
 107 0000 08B5     		push	{r3, lr}
 108              		.cfi_def_cfa_offset 8
 109              		.cfi_offset 3, -8
 110              		.cfi_offset 14, -4
  70:main.c        ****     bandera=1;
 111              		.loc 1 70 0
 112 0002 FFF7FEFF 		bl	UART_1_GetChar
 113              	.LVL0:
 114 0006 024B     		ldr	r3, .L12
 115 0008 D870     		strb	r0, [r3, #3]
  71:main.c        **** }
 116              		.loc 1 71 0
 117 000a 0122     		movs	r2, #1
 118 000c 1A71     		strb	r2, [r3, #4]
 119 000e 08BD     		pop	{r3, pc}
 120              	.L13:
 121              		.align	2
 122              	.L12:
 123 0010 00000000 		.word	.LANCHOR0
 124              		.cfi_endproc
 125              	.LFE66:
 126              		.size	datos, .-datos
 127              		.section	.text.sec_leds,"ax",%progbits
 128              		.align	2
 129              		.global	sec_leds
 130              		.thumb
 131              		.thumb_func
 132              		.type	sec_leds, %function
 133              	sec_leds:
 134              	.LFB64:
  43:main.c        **** aviso_Write(ledval[ledindx]);
 135              		.loc 1 43 0
 136              		.cfi_startproc
 137              		@ args = 0, pretend = 0, frame = 0
 138              		@ frame_needed = 0, uses_anonymous_args = 0
 139 0000 10B5     		push	{r4, lr}
 140              		.cfi_def_cfa_offset 8
 141              		.cfi_offset 4, -8
 142              		.cfi_offset 14, -4
  44:main.c        **** switch(ledindx){
 143              		.loc 1 44 0
 144 0002 0E4C     		ldr	r4, .L22
ARM GAS  C:\Users\MIGUEL\AppData\Local\Temp\ccp6cAZ1.s 			page 5


 145 0004 6379     		ldrb	r3, [r4, #5]	@ zero_extendqisi2
 146 0006 0E4A     		ldr	r2, .L22+4
 147 0008 D05C     		ldrb	r0, [r2, r3]	@ zero_extendqisi2
 148 000a FFF7FEFF 		bl	aviso_Write
 149              	.LVL1:
  45:main.c        **** case 3:
 150              		.loc 1 45 0
 151 000e 6379     		ldrb	r3, [r4, #5]	@ zero_extendqisi2
 152 0010 23B1     		cbz	r3, .L16
 153 0012 032B     		cmp	r3, #3
 154 0014 05D1     		bne	.L15
  47:main.c        ****     break;
 155              		.loc 1 47 0
 156 0016 0121     		movs	r1, #1
 157 0018 A171     		strb	r1, [r4, #6]
  48:main.c        **** case 0:
 158              		.loc 1 48 0
 159 001a 02E0     		b	.L15
 160              	.L16:
  50:main.c        ****     break;
 161              		.loc 1 50 0
 162 001c 0021     		movs	r1, #0
 163 001e 074A     		ldr	r2, .L22
 164 0020 9171     		strb	r1, [r2, #6]
 165              	.L15:
  53:main.c        **** case 1:
 166              		.loc 1 53 0
 167 0022 064A     		ldr	r2, .L22
 168 0024 9279     		ldrb	r2, [r2, #6]	@ zero_extendqisi2
 169 0026 2AB1     		cbz	r2, .L19
 170 0028 012A     		cmp	r2, #1
 171 002a 06D1     		bne	.L14
  55:main.c        ****     break;
 172              		.loc 1 55 0
 173 002c 013B     		subs	r3, r3, #1
 174 002e 034A     		ldr	r2, .L22
 175 0030 5371     		strb	r3, [r2, #5]
  56:main.c        **** case 0:
 176              		.loc 1 56 0
 177 0032 10BD     		pop	{r4, pc}
 178              	.L19:
  58:main.c        ****     break;
 179              		.loc 1 58 0
 180 0034 0133     		adds	r3, r3, #1
 181 0036 014A     		ldr	r2, .L22
 182 0038 5371     		strb	r3, [r2, #5]
 183              	.L14:
 184 003a 10BD     		pop	{r4, pc}
 185              	.L23:
 186              		.align	2
 187              	.L22:
 188 003c 00000000 		.word	.LANCHOR0
 189 0040 00000000 		.word	.LANCHOR1
 190              		.cfi_endproc
 191              	.LFE64:
 192              		.size	sec_leds, .-sec_leds
 193              		.global	__aeabi_f2d
ARM GAS  C:\Users\MIGUEL\AppData\Local\Temp\ccp6cAZ1.s 			page 6


 194              		.section	.text.EncenderLCD,"ax",%progbits
 195              		.align	2
 196              		.global	EncenderLCD
 197              		.thumb
 198              		.thumb_func
 199              		.type	EncenderLCD, %function
 200              	EncenderLCD:
 201              	.LFB69:
  80:main.c        **** }
  81:main.c        **** 
  82:main.c        **** void EncenderLCD(int fl,float32 tem,int h,int min, int sec){
 202              		.loc 1 82 0
 203              		.cfi_startproc
 204              		@ args = 4, pretend = 0, frame = 160
 205              		@ frame_needed = 0, uses_anonymous_args = 0
 206              	.LVL2:
 207 0000 F0B5     		push	{r4, r5, r6, r7, lr}
 208              		.cfi_def_cfa_offset 20
 209              		.cfi_offset 4, -20
 210              		.cfi_offset 5, -16
 211              		.cfi_offset 6, -12
 212              		.cfi_offset 7, -8
 213              		.cfi_offset 14, -4
 214 0002 ABB0     		sub	sp, sp, #172
 215              		.cfi_def_cfa_offset 192
 216 0004 0646     		mov	r6, r0
 217 0006 0F46     		mov	r7, r1
 218 0008 1446     		mov	r4, r2
 219 000a 1D46     		mov	r5, r3
  83:main.c        ****     LCD_ClearDisplay();
 220              		.loc 1 83 0
 221 000c 0120     		movs	r0, #1
 222              	.LVL3:
 223 000e FFF7FEFF 		bl	LCD_WriteControl
 224              	.LVL4:
  84:main.c        ****     if (band_7seg==1){
 225              		.loc 1 84 0
 226 0012 1A4B     		ldr	r3, .L27
 227 0014 DB79     		ldrb	r3, [r3, #7]	@ zero_extendqisi2
 228 0016 012B     		cmp	r3, #1
 229 0018 03D1     		bne	.L25
  85:main.c        ****         LED_Driver_WriteString7Seg(" LCD",0);
 230              		.loc 1 85 0
 231 001a 0021     		movs	r1, #0
 232 001c 1848     		ldr	r0, .L27+4
 233 001e FFF7FEFF 		bl	LED_Driver_WriteString7Seg
 234              	.LVL5:
 235              	.L25:
  86:main.c        ****     }
  87:main.c        ****     char temp[50];
  88:main.c        ****     char fluj[50];
  89:main.c        ****     char tiemp[50];
  90:main.c        ****     LCD_Position(0,0);
 236              		.loc 1 90 0
 237 0022 0021     		movs	r1, #0
 238 0024 0846     		mov	r0, r1
 239 0026 FFF7FEFF 		bl	LCD_Position
ARM GAS  C:\Users\MIGUEL\AppData\Local\Temp\ccp6cAZ1.s 			page 7


 240              	.LVL6:
  91:main.c        ****     sprintf(temp,"Temperatura:   %.1fC",tem);
 241              		.loc 1 91 0
 242 002a 3846     		mov	r0, r7
 243 002c FFF7FEFF 		bl	__aeabi_f2d
 244              	.LVL7:
 245 0030 0246     		mov	r2, r0
 246 0032 0B46     		mov	r3, r1
 247 0034 1349     		ldr	r1, .L27+8
 248 0036 1DA8     		add	r0, sp, #116
 249 0038 FFF7FEFF 		bl	sprintf
 250              	.LVL8:
  92:main.c        ****     LCD_PrintString(temp);
 251              		.loc 1 92 0
 252 003c 1DA8     		add	r0, sp, #116
 253 003e FFF7FEFF 		bl	LCD_PrintString
 254              	.LVL9:
  93:main.c        ****     LCD_Position(1,0);
 255              		.loc 1 93 0
 256 0042 0021     		movs	r1, #0
 257 0044 0120     		movs	r0, #1
 258 0046 FFF7FEFF 		bl	LCD_Position
 259              	.LVL10:
  94:main.c        ****     sprintf(fluj,"Flujo:           %2d%%",fl);
 260              		.loc 1 94 0
 261 004a 3246     		mov	r2, r6
 262 004c 0E49     		ldr	r1, .L27+12
 263 004e 10A8     		add	r0, sp, #64
 264 0050 FFF7FEFF 		bl	sprintf
 265              	.LVL11:
  95:main.c        ****     LCD_PrintString(fluj);
 266              		.loc 1 95 0
 267 0054 10A8     		add	r0, sp, #64
 268 0056 FFF7FEFF 		bl	LCD_PrintString
 269              	.LVL12:
  96:main.c        ****     LCD_Position(3,0);
 270              		.loc 1 96 0
 271 005a 0021     		movs	r1, #0
 272 005c 0320     		movs	r0, #3
 273 005e FFF7FEFF 		bl	LCD_Position
 274              	.LVL13:
  97:main.c        ****     sprintf(tiemp,"Tiempo:     %02d:%02d:%02d",h,min,sec);
 275              		.loc 1 97 0
 276 0062 309B     		ldr	r3, [sp, #192]
 277 0064 0093     		str	r3, [sp]
 278 0066 2B46     		mov	r3, r5
 279 0068 2246     		mov	r2, r4
 280 006a 0849     		ldr	r1, .L27+16
 281 006c 03A8     		add	r0, sp, #12
 282 006e FFF7FEFF 		bl	sprintf
 283              	.LVL14:
  98:main.c        ****     LCD_PrintString(tiemp);
 284              		.loc 1 98 0
 285 0072 03A8     		add	r0, sp, #12
 286 0074 FFF7FEFF 		bl	LCD_PrintString
 287              	.LVL15:
  99:main.c        **** }
ARM GAS  C:\Users\MIGUEL\AppData\Local\Temp\ccp6cAZ1.s 			page 8


 288              		.loc 1 99 0
 289 0078 2BB0     		add	sp, sp, #172
 290              		.cfi_def_cfa_offset 20
 291              		@ sp needed
 292 007a F0BD     		pop	{r4, r5, r6, r7, pc}
 293              	.LVL16:
 294              	.L28:
 295              		.align	2
 296              	.L27:
 297 007c 00000000 		.word	.LANCHOR0
 298 0080 00000000 		.word	.LC0
 299 0084 08000000 		.word	.LC1
 300 0088 20000000 		.word	.LC2
 301 008c 38000000 		.word	.LC3
 302              		.cfi_endproc
 303              	.LFE69:
 304              		.size	EncenderLCD, .-EncenderLCD
 305              		.global	__aeabi_i2d
 306              		.global	__aeabi_ddiv
 307              		.global	__aeabi_dsub
 308              		.global	__aeabi_d2f
 309              		.section	.text.con,"ax",%progbits
 310              		.align	2
 311              		.global	con
 312              		.thumb
 313              		.thumb_func
 314              		.type	con, %function
 315              	con:
 316              	.LFB70:
 100:main.c        **** void con(){
 317              		.loc 1 100 0
 318              		.cfi_startproc
 319              		@ args = 0, pretend = 0, frame = 0
 320              		@ frame_needed = 0, uses_anonymous_args = 0
 321 0000 10B5     		push	{r4, lr}
 322              		.cfi_def_cfa_offset 8
 323              		.cfi_offset 4, -8
 324              		.cfi_offset 14, -4
 101:main.c        **** ADC_StartConvert();
 325              		.loc 1 101 0
 326 0002 FFF7FEFF 		bl	ADC_StartConvert
 327              	.LVL17:
 102:main.c        **** ADC_IsEndConversion(ADC_WAIT_FOR_RESULT);
 328              		.loc 1 102 0
 329 0006 0020     		movs	r0, #0
 330 0008 FFF7FEFF 		bl	ADC_IsEndConversion
 331              	.LVL18:
 103:main.c        **** en=ADC_GetResult16();
 332              		.loc 1 103 0
 333 000c FFF7FEFF 		bl	ADC_GetResult16
 334              	.LVL19:
 335 0010 0C4C     		ldr	r4, .L31
 336 0012 2080     		strh	r0, [r4]	@ movhi
 104:main.c        **** ADC_StopConvert();
 337              		.loc 1 104 0
 338 0014 FFF7FEFF 		bl	ADC_StopConvert
 339              	.LVL20:
ARM GAS  C:\Users\MIGUEL\AppData\Local\Temp\ccp6cAZ1.s 			page 9


 105:main.c        **** vol=ADC_CountsTo_mVolts(en);
 340              		.loc 1 105 0
 341 0018 B4F90000 		ldrsh	r0, [r4]
 342 001c FFF7FEFF 		bl	ADC_CountsTo_mVolts
 343              	.LVL21:
 344 0020 094B     		ldr	r3, .L31+4
 345 0022 1880     		strh	r0, [r3]	@ movhi
 106:main.c        **** tem=(vol/10.00)-5.00;
 346              		.loc 1 106 0
 347 0024 FFF7FEFF 		bl	__aeabi_i2d
 348              	.LVL22:
 349 0028 0022     		movs	r2, #0
 350 002a 084B     		ldr	r3, .L31+8
 351 002c FFF7FEFF 		bl	__aeabi_ddiv
 352              	.LVL23:
 353 0030 0022     		movs	r2, #0
 354 0032 074B     		ldr	r3, .L31+12
 355 0034 FFF7FEFF 		bl	__aeabi_dsub
 356              	.LVL24:
 357 0038 FFF7FEFF 		bl	__aeabi_d2f
 358              	.LVL25:
 359 003c 054B     		ldr	r3, .L31+16
 360 003e 1860     		str	r0, [r3]	@ float
 361 0040 10BD     		pop	{r4, pc}
 362              	.L32:
 363 0042 00BF     		.align	2
 364              	.L31:
 365 0044 00000000 		.word	en
 366 0048 00000000 		.word	vol
 367 004c 00002440 		.word	1076101120
 368 0050 00001440 		.word	1075052544
 369 0054 00000000 		.word	tem
 370              		.cfi_endproc
 371              	.LFE70:
 372              		.size	con, .-con
 373              		.section	.text.reloj,"ax",%progbits
 374              		.align	2
 375              		.global	reloj
 376              		.thumb
 377              		.thumb_func
 378              		.type	reloj, %function
 379              	reloj:
 380              	.LFB71:
 107:main.c        **** }
 108:main.c        **** void reloj(){
 381              		.loc 1 108 0
 382              		.cfi_startproc
 383              		@ args = 0, pretend = 0, frame = 0
 384              		@ frame_needed = 0, uses_anonymous_args = 0
 109:main.c        ****     if (timer){
 385              		.loc 1 109 0
 386 0000 304B     		ldr	r3, .L42
 387 0002 1B78     		ldrb	r3, [r3]	@ zero_extendqisi2
 388 0004 002B     		cmp	r3, #0
 389 0006 5CD0     		beq	.L41
 110:main.c        ****     timer=0;
 390              		.loc 1 110 0
ARM GAS  C:\Users\MIGUEL\AppData\Local\Temp\ccp6cAZ1.s 			page 10


 391 0008 2E4A     		ldr	r2, .L42
 392 000a 0023     		movs	r3, #0
 393 000c 1370     		strb	r3, [r2]
 111:main.c        ****     mili++;       
 394              		.loc 1 111 0
 395 000e 1389     		ldrh	r3, [r2, #8]
 396 0010 0133     		adds	r3, r3, #1
 397 0012 9BB2     		uxth	r3, r3
 398 0014 1381     		strh	r3, [r2, #8]	@ movhi
 112:main.c        ****     if (mili==1000){
 399              		.loc 1 112 0
 400 0016 B3F57A7F 		cmp	r3, #1000
 401 001a 52D1     		bne	.L41
 108:main.c        ****     if (timer){
 402              		.loc 1 108 0
 403 001c 10B5     		push	{r4, lr}
 404              		.cfi_def_cfa_offset 8
 405              		.cfi_offset 4, -8
 406              		.cfi_offset 14, -4
 407 001e 82B0     		sub	sp, sp, #8
 408              		.cfi_def_cfa_offset 16
 113:main.c        ****         if (band_aviso==1){
 409              		.loc 1 113 0
 410 0020 937A     		ldrb	r3, [r2, #10]	@ zero_extendqisi2
 411 0022 012B     		cmp	r3, #1
 412 0024 01D1     		bne	.L35
 114:main.c        ****         sec_leds();
 413              		.loc 1 114 0
 414 0026 FFF7FEFF 		bl	sec_leds
 415              	.LVL26:
 416              	.L35:
 115:main.c        ****         }
 116:main.c        ****         mili=0;     
 417              		.loc 1 116 0
 418 002a 264C     		ldr	r4, .L42
 419 002c 0023     		movs	r3, #0
 420 002e 2381     		strh	r3, [r4, #8]	@ movhi
 117:main.c        ****         con();
 421              		.loc 1 117 0
 422 0030 FFF7FEFF 		bl	con
 423              	.LVL27:
 118:main.c        ****         EncenderLCD(fl,tem,h,min,seg);  
 424              		.loc 1 118 0
 425 0034 E37A     		ldrb	r3, [r4, #11]	@ zero_extendqisi2
 426 0036 227B     		ldrb	r2, [r4, #12]	@ zero_extendqisi2
 427 0038 2349     		ldr	r1, .L42+4
 428 003a 0968     		ldr	r1, [r1]	@ float
 429 003c 207D     		ldrb	r0, [r4, #20]	@ zero_extendqisi2
 430 003e 0090     		str	r0, [sp]
 431 0040 2069     		ldr	r0, [r4, #16]
 432 0042 FFF7FEFF 		bl	EncenderLCD
 433              	.LVL28:
 119:main.c        ****         seg++;
 434              		.loc 1 119 0
 435 0046 237D     		ldrb	r3, [r4, #20]	@ zero_extendqisi2
 436 0048 0133     		adds	r3, r3, #1
 437 004a DBB2     		uxtb	r3, r3
ARM GAS  C:\Users\MIGUEL\AppData\Local\Temp\ccp6cAZ1.s 			page 11


 438 004c 2375     		strb	r3, [r4, #20]
 120:main.c        ****         if (a_seg5==1){
 439              		.loc 1 120 0
 440 004e 627D     		ldrb	r2, [r4, #21]	@ zero_extendqisi2
 441 0050 012A     		cmp	r2, #1
 442 0052 13D1     		bne	.L36
 121:main.c        ****             seg5++;
 443              		.loc 1 121 0
 444 0054 A27D     		ldrb	r2, [r4, #22]	@ zero_extendqisi2
 445 0056 0132     		adds	r2, r2, #1
 446 0058 D2B2     		uxtb	r2, r2
 447 005a A275     		strb	r2, [r4, #22]
 122:main.c        ****             if (seg5==5){
 448              		.loc 1 122 0
 449 005c 052A     		cmp	r2, #5
 450 005e 0DD1     		bne	.L36
 123:main.c        ****             seg5=0;
 451              		.loc 1 123 0
 452 0060 0021     		movs	r1, #0
 453 0062 A175     		strb	r1, [r4, #22]
 124:main.c        ****             switch (band_5seg){
 454              		.loc 1 124 0
 455 0064 E27D     		ldrb	r2, [r4, #23]	@ zero_extendqisi2
 456 0066 12B1     		cbz	r2, .L37
 457 0068 012A     		cmp	r2, #1
 458 006a 04D0     		beq	.L38
 459 006c 06E0     		b	.L36
 460              	.L37:
 125:main.c        ****             case 0:
 126:main.c        ****                 band_5seg=1;
 461              		.loc 1 126 0
 462 006e 0121     		movs	r1, #1
 463 0070 144A     		ldr	r2, .L42
 464 0072 D175     		strb	r1, [r2, #23]
 127:main.c        ****                 break;
 465              		.loc 1 127 0
 466 0074 02E0     		b	.L36
 467              	.L38:
 128:main.c        ****             case 1:
 129:main.c        ****                 band_5seg=0;
 468              		.loc 1 129 0
 469 0076 0021     		movs	r1, #0
 470 0078 124A     		ldr	r2, .L42
 471 007a D175     		strb	r1, [r2, #23]
 472              	.L36:
 130:main.c        ****                 }
 131:main.c        ****             }
 132:main.c        ****         }
 133:main.c        ****         if (a_seg10==1){
 473              		.loc 1 133 0
 474 007c 114A     		ldr	r2, .L42
 475 007e 127E     		ldrb	r2, [r2, #24]	@ zero_extendqisi2
 476 0080 012A     		cmp	r2, #1
 477 0082 0BD1     		bne	.L39
 134:main.c        ****             seg10++;
 478              		.loc 1 134 0
 479 0084 0F49     		ldr	r1, .L42
ARM GAS  C:\Users\MIGUEL\AppData\Local\Temp\ccp6cAZ1.s 			page 12


 480 0086 4A7E     		ldrb	r2, [r1, #25]	@ zero_extendqisi2
 481 0088 0132     		adds	r2, r2, #1
 482 008a D2B2     		uxtb	r2, r2
 483 008c 4A76     		strb	r2, [r1, #25]
 135:main.c        ****             if (seg10==10){
 484              		.loc 1 135 0
 485 008e 0A2A     		cmp	r2, #10
 486 0090 04D1     		bne	.L39
 136:main.c        ****             band_10seg=1;
 487              		.loc 1 136 0
 488 0092 0A46     		mov	r2, r1
 489 0094 0121     		movs	r1, #1
 490 0096 9176     		strb	r1, [r2, #26]
 137:main.c        ****             seg10=0;
 491              		.loc 1 137 0
 492 0098 0021     		movs	r1, #0
 493 009a 5176     		strb	r1, [r2, #25]
 494              	.L39:
 138:main.c        ****             }
 139:main.c        ****         }
 140:main.c        ****         if (seg==60){
 495              		.loc 1 140 0
 496 009c 3C2B     		cmp	r3, #60
 497 009e 0ED1     		bne	.L33
 141:main.c        ****             seg=0;
 498              		.loc 1 141 0
 499 00a0 084A     		ldr	r2, .L42
 500 00a2 0023     		movs	r3, #0
 501 00a4 1375     		strb	r3, [r2, #20]
 142:main.c        ****             min++;
 502              		.loc 1 142 0
 503 00a6 D37A     		ldrb	r3, [r2, #11]	@ zero_extendqisi2
 504 00a8 0133     		adds	r3, r3, #1
 505 00aa DBB2     		uxtb	r3, r3
 506 00ac D372     		strb	r3, [r2, #11]
 143:main.c        ****             if (min==60){
 507              		.loc 1 143 0
 508 00ae 3C2B     		cmp	r3, #60
 509 00b0 05D1     		bne	.L33
 144:main.c        ****                 min=0;
 510              		.loc 1 144 0
 511 00b2 1346     		mov	r3, r2
 512 00b4 0022     		movs	r2, #0
 513 00b6 DA72     		strb	r2, [r3, #11]
 145:main.c        ****                 h++;
 514              		.loc 1 145 0
 515 00b8 1A7B     		ldrb	r2, [r3, #12]	@ zero_extendqisi2
 516 00ba 0132     		adds	r2, r2, #1
 517 00bc 1A73     		strb	r2, [r3, #12]
 518              	.L33:
 146:main.c        ****             }
 147:main.c        **** }
 148:main.c        **** }}}
 519              		.loc 1 148 0
 520 00be 02B0     		add	sp, sp, #8
 521              		.cfi_def_cfa_offset 8
 522              		@ sp needed
ARM GAS  C:\Users\MIGUEL\AppData\Local\Temp\ccp6cAZ1.s 			page 13


 523 00c0 10BD     		pop	{r4, pc}
 524              	.L41:
 525              		.cfi_def_cfa_offset 0
 526              		.cfi_restore 4
 527              		.cfi_restore 14
 528 00c2 7047     		bx	lr
 529              	.L43:
 530              		.align	2
 531              	.L42:
 532 00c4 00000000 		.word	.LANCHOR0
 533 00c8 00000000 		.word	tem
 534              		.cfi_endproc
 535              	.LFE71:
 536              		.size	reloj, .-reloj
 537              		.section	.text.apagado,"ax",%progbits
 538              		.align	2
 539              		.global	apagado
 540              		.thumb
 541              		.thumb_func
 542              		.type	apagado, %function
 543              	apagado:
 544              	.LFB72:
 149:main.c        **** void apagado(){
 545              		.loc 1 149 0
 546              		.cfi_startproc
 547              		@ args = 0, pretend = 0, frame = 0
 548              		@ frame_needed = 0, uses_anonymous_args = 0
 549 0000 08B5     		push	{r3, lr}
 550              		.cfi_def_cfa_offset 8
 551              		.cfi_offset 3, -8
 552              		.cfi_offset 14, -4
 150:main.c        ****      
 151:main.c        ****     mili=0;
 553              		.loc 1 151 0
 554 0002 164B     		ldr	r3, .L47
 555 0004 0022     		movs	r2, #0
 556 0006 1A81     		strh	r2, [r3, #8]	@ movhi
 152:main.c        ****     seg=0;
 557              		.loc 1 152 0
 558 0008 1A75     		strb	r2, [r3, #20]
 153:main.c        ****     min=0;
 559              		.loc 1 153 0
 560 000a DA72     		strb	r2, [r3, #11]
 154:main.c        ****     h=0;
 561              		.loc 1 154 0
 562 000c 1A73     		strb	r2, [r3, #12]
 155:main.c        ****     if (timer){
 563              		.loc 1 155 0
 564 000e 1B78     		ldrb	r3, [r3]	@ zero_extendqisi2
 565 0010 13B3     		cbz	r3, .L44
 156:main.c        ****     timer=0;
 566              		.loc 1 156 0
 567 0012 124A     		ldr	r2, .L47
 568 0014 0023     		movs	r3, #0
 569 0016 1370     		strb	r3, [r2]
 157:main.c        ****     c++;
 570              		.loc 1 157 0
ARM GAS  C:\Users\MIGUEL\AppData\Local\Temp\ccp6cAZ1.s 			page 14


 571 0018 938B     		ldrh	r3, [r2, #28]
 572 001a 0133     		adds	r3, r3, #1
 573 001c 9BB2     		uxth	r3, r3
 574 001e 9383     		strh	r3, [r2, #28]	@ movhi
 158:main.c        ****     if (c==1000){
 575              		.loc 1 158 0
 576 0020 B3F57A7F 		cmp	r3, #1000
 577 0024 18D1     		bne	.L44
 159:main.c        ****         LCD_ClearDisplay();
 578              		.loc 1 159 0
 579 0026 0120     		movs	r0, #1
 580 0028 FFF7FEFF 		bl	LCD_WriteControl
 581              	.LVL29:
 160:main.c        ****         LED_Driver_ClearDisplayAll();
 582              		.loc 1 160 0
 583 002c FFF7FEFF 		bl	LED_Driver_ClearDisplayAll
 584              	.LVL30:
 161:main.c        ****         UART_1_PutString("Dispositivo apagado \n");
 585              		.loc 1 161 0
 586 0030 0B48     		ldr	r0, .L47+4
 587 0032 FFF7FEFF 		bl	UART_1_PutString
 588              	.LVL31:
 162:main.c        ****         LCD_Position(0,0);
 589              		.loc 1 162 0
 590 0036 0021     		movs	r1, #0
 591 0038 0846     		mov	r0, r1
 592 003a FFF7FEFF 		bl	LCD_Position
 593              	.LVL32:
 163:main.c        ****         LCD_PrintString("Dispositivo apagado");
 594              		.loc 1 163 0
 595 003e 0948     		ldr	r0, .L47+8
 596 0040 FFF7FEFF 		bl	LCD_PrintString
 597              	.LVL33:
 164:main.c        ****         tilt_Write(!tilt_Read());
 598              		.loc 1 164 0
 599 0044 FFF7FEFF 		bl	tilt_Read
 600              	.LVL34:
 601 0048 B0FA80F0 		clz	r0, r0
 602 004c 4009     		lsrs	r0, r0, #5
 603 004e FFF7FEFF 		bl	tilt_Write
 604              	.LVL35:
 165:main.c        ****         c=0;
 605              		.loc 1 165 0
 606 0052 0022     		movs	r2, #0
 607 0054 014B     		ldr	r3, .L47
 608 0056 9A83     		strh	r2, [r3, #28]	@ movhi
 609              	.L44:
 610 0058 08BD     		pop	{r3, pc}
 611              	.L48:
 612 005a 00BF     		.align	2
 613              	.L47:
 614 005c 00000000 		.word	.LANCHOR0
 615 0060 54000000 		.word	.LC4
 616 0064 6C000000 		.word	.LC5
 617              		.cfi_endproc
 618              	.LFE72:
 619              		.size	apagado, .-apagado
ARM GAS  C:\Users\MIGUEL\AppData\Local\Temp\ccp6cAZ1.s 			page 15


 620              		.section	.text.con_mot,"ax",%progbits
 621              		.align	2
 622              		.global	con_mot
 623              		.thumb
 624              		.thumb_func
 625              		.type	con_mot, %function
 626              	con_mot:
 627              	.LFB73:
 166:main.c        ****     } 
 167:main.c        ****     }
 168:main.c        ****     }
 169:main.c        **** 
 170:main.c        **** void con_mot(void){
 628              		.loc 1 170 0
 629              		.cfi_startproc
 630              		@ args = 0, pretend = 0, frame = 0
 631              		@ frame_needed = 0, uses_anonymous_args = 0
 632              		@ link register save eliminated.
 171:main.c        **** switch(fl){
 633              		.loc 1 171 0
 634 0000 0B4B     		ldr	r3, .L55
 635 0002 1B69     		ldr	r3, [r3, #16]
 636 0004 13B1     		cbz	r3, .L51
 637 0006 642B     		cmp	r3, #100
 638 0008 05D0     		beq	.L52
 639 000a 09E0     		b	.L54
 640              	.L51:
 172:main.c        ****     case 0:
 173:main.c        ****     compare=999;
 641              		.loc 1 173 0
 642 000c 40F2E732 		movw	r2, #999
 643 0010 084B     		ldr	r3, .L55+4
 644 0012 9A80     		strh	r2, [r3, #4]	@ movhi
 174:main.c        ****     break;
 645              		.loc 1 174 0
 646 0014 7047     		bx	lr
 647              	.L52:
 175:main.c        ****     case 100:
 176:main.c        ****     compare=2000;
 648              		.loc 1 176 0
 649 0016 4FF4FA62 		mov	r2, #2000
 650 001a 064B     		ldr	r3, .L55+4
 651 001c 9A80     		strh	r2, [r3, #4]	@ movhi
 177:main.c        ****     break;
 652              		.loc 1 177 0
 653 001e 7047     		bx	lr
 654              	.L54:
 178:main.c        ****     default:
 179:main.c        ****     compare=999+(fl*10);
 655              		.loc 1 179 0
 656 0020 03EB8303 		add	r3, r3, r3, lsl #2
 657 0024 5A00     		lsls	r2, r3, #1
 658 0026 02F2E732 		addw	r2, r2, #999
 659 002a 024B     		ldr	r3, .L55+4
 660 002c 9A80     		strh	r2, [r3, #4]	@ movhi
 661 002e 7047     		bx	lr
 662              	.L56:
ARM GAS  C:\Users\MIGUEL\AppData\Local\Temp\ccp6cAZ1.s 			page 16


 663              		.align	2
 664              	.L55:
 665 0030 00000000 		.word	.LANCHOR0
 666 0034 00000000 		.word	.LANCHOR1
 667              		.cfi_endproc
 668              	.LFE73:
 669              		.size	con_mot, .-con_mot
 670              		.section	.text.print_f,"ax",%progbits
 671              		.align	2
 672              		.global	print_f
 673              		.thumb
 674              		.thumb_func
 675              		.type	print_f, %function
 676              	print_f:
 677              	.LFB74:
 180:main.c        ****     break;
 181:main.c        ****     
 182:main.c        ****     
 183:main.c        **** }
 184:main.c        **** 
 185:main.c        **** }
 186:main.c        **** void print_f(){
 678              		.loc 1 186 0
 679              		.cfi_startproc
 680              		@ args = 0, pretend = 0, frame = 0
 681              		@ frame_needed = 0, uses_anonymous_args = 0
 682 0000 70B5     		push	{r4, r5, r6, lr}
 683              		.cfi_def_cfa_offset 16
 684              		.cfi_offset 4, -16
 685              		.cfi_offset 5, -12
 686              		.cfi_offset 6, -8
 687              		.cfi_offset 14, -4
 187:main.c        ****     
 188:main.c        ****     band_7seg=0;
 688              		.loc 1 188 0
 689 0002 084E     		ldr	r6, .L59
 690 0004 0025     		movs	r5, #0
 691 0006 F571     		strb	r5, [r6, #7]
 189:main.c        ****     LCD_Stop();
 692              		.loc 1 189 0
 693 0008 FFF7FEFF 		bl	LCD_Stop
 694              	.LVL36:
 190:main.c        ****     sprintf(seg_7,"F%03d",fl);
 695              		.loc 1 190 0
 696 000c 064C     		ldr	r4, .L59+4
 697 000e 3269     		ldr	r2, [r6, #16]
 698 0010 0649     		ldr	r1, .L59+8
 699 0012 2046     		mov	r0, r4
 700 0014 FFF7FEFF 		bl	sprintf
 701              	.LVL37:
 191:main.c        ****     LED_Driver_WriteString7Seg(seg_7,0);
 702              		.loc 1 191 0
 703 0018 2946     		mov	r1, r5
 704 001a 2046     		mov	r0, r4
 705 001c FFF7FEFF 		bl	LED_Driver_WriteString7Seg
 706              	.LVL38:
 707 0020 70BD     		pop	{r4, r5, r6, pc}
ARM GAS  C:\Users\MIGUEL\AppData\Local\Temp\ccp6cAZ1.s 			page 17


 708              	.L60:
 709 0022 00BF     		.align	2
 710              	.L59:
 711 0024 00000000 		.word	.LANCHOR0
 712 0028 00000000 		.word	seg_7
 713 002c 80000000 		.word	.LC6
 714              		.cfi_endproc
 715              	.LFE74:
 716              		.size	print_f, .-print_f
 717              		.global	__aeabi_fcmpgt
 718              		.global	__aeabi_fcmplt
 719              		.section	.text.main,"ax",%progbits
 720              		.align	2
 721              		.global	main
 722              		.thumb
 723              		.thumb_func
 724              		.type	main, %function
 725              	main:
 726              	.LFB75:
 192:main.c        **** }
 193:main.c        **** int main(void)
 194:main.c        **** 
 195:main.c        **** 
 196:main.c        **** {
 727              		.loc 1 196 0
 728              		.cfi_startproc
 729              		@ Volatile: function does not return.
 730              		@ args = 0, pretend = 0, frame = 0
 731              		@ frame_needed = 0, uses_anonymous_args = 0
 732 0000 08B5     		push	{r3, lr}
 733              		.cfi_def_cfa_offset 8
 734              		.cfi_offset 3, -8
 735              		.cfi_offset 14, -4
 197:main.c        ****     CyGlobalIntEnable; 
 736              		.loc 1 197 0
 737              		.syntax unified
 738              	@ 197 "main.c" 1
 739 0002 62B6     		CPSIE   i
 740              	@ 0 "" 2
 198:main.c        **** LED_Driver_Start();
 741              		.loc 1 198 0
 742              		.thumb
 743              		.syntax unified
 744 0004 FFF7FEFF 		bl	LED_Driver_Start
 745              	.LVL39:
 199:main.c        **** Counter_1_Start();
 746              		.loc 1 199 0
 747 0008 FFF7FEFF 		bl	Counter_1_Start
 748              	.LVL40:
 200:main.c        **** isr_contador_StartEx(contar);
 749              		.loc 1 200 0
 750 000c 9348     		ldr	r0, .L84
 751 000e FFF7FEFF 		bl	isr_contador_StartEx
 752              	.LVL41:
 201:main.c        **** data_StartEx(datos);
 753              		.loc 1 201 0
 754 0012 9348     		ldr	r0, .L84+4
ARM GAS  C:\Users\MIGUEL\AppData\Local\Temp\ccp6cAZ1.s 			page 18


 755 0014 FFF7FEFF 		bl	data_StartEx
 756              	.LVL42:
 202:main.c        **** UART_1_Start();
 757              		.loc 1 202 0
 758 0018 FFF7FEFF 		bl	UART_1_Start
 759              	.LVL43:
 203:main.c        **** LCD_Start();
 760              		.loc 1 203 0
 761 001c FFF7FEFF 		bl	LCD_Start
 762              	.LVL44:
 204:main.c        **** PWM_Start();
 763              		.loc 1 204 0
 764 0020 FFF7FEFF 		bl	PWM_Start
 765              	.LVL45:
 205:main.c        **** aum_StartEx(aumento);
 766              		.loc 1 205 0
 767 0024 8F48     		ldr	r0, .L84+8
 768 0026 FFF7FEFF 		bl	aum_StartEx
 769              	.LVL46:
 206:main.c        **** dism_StartEx(disminu);
 770              		.loc 1 206 0
 771 002a 8F48     		ldr	r0, .L84+12
 772 002c FFF7FEFF 		bl	dism_StartEx
 773              	.LVL47:
 207:main.c        **** Opamp_Start();
 774              		.loc 1 207 0
 775 0030 FFF7FEFF 		bl	Opamp_Start
 776              	.LVL48:
 208:main.c        **** ADC_Start();
 777              		.loc 1 208 0
 778 0034 FFF7FEFF 		bl	ADC_Start
 779              	.LVL49:
 780              	.L62:
 209:main.c        ****     for(;;)
 210:main.c        ****     {
 211:main.c        ****     if (bandera==1){
 781              		.loc 1 211 0
 782 0038 8C4B     		ldr	r3, .L84+16
 783 003a 1B79     		ldrb	r3, [r3, #4]	@ zero_extendqisi2
 784 003c 012B     		cmp	r3, #1
 785 003e 40F00981 		bne	.L64
 212:main.c        ****             switch (lectura){
 786              		.loc 1 212 0
 787 0042 8A4B     		ldr	r3, .L84+16
 788 0044 DB78     		ldrb	r3, [r3, #3]	@ zero_extendqisi2
 789 0046 612B     		cmp	r3, #97
 790 0048 02D0     		beq	.L66
 791 004a 622B     		cmp	r3, #98
 792 004c 03D0     		beq	.L67
 793 004e 04E0     		b	.L65
 794              	.L66:
 213:main.c        ****         case 'a':
 214:main.c        ****             lectura_p=lectura;
 795              		.loc 1 214 0
 796 0050 874A     		ldr	r2, .L84+20
 797 0052 9371     		strb	r3, [r2, #6]
 215:main.c        ****             break; 
ARM GAS  C:\Users\MIGUEL\AppData\Local\Temp\ccp6cAZ1.s 			page 19


 798              		.loc 1 215 0
 799 0054 01E0     		b	.L65
 800              	.L67:
 216:main.c        ****         case 'b':
 217:main.c        ****             lectura_p=lectura;
 801              		.loc 1 217 0
 802 0056 864A     		ldr	r2, .L84+20
 803 0058 9371     		strb	r3, [r2, #6]
 804              	.L65:
 218:main.c        ****             break;
 219:main.c        ****         }
 220:main.c        ****         switch (lectura_p){
 805              		.loc 1 220 0
 806 005a 854B     		ldr	r3, .L84+20
 807 005c 9B79     		ldrb	r3, [r3, #6]	@ zero_extendqisi2
 808 005e 612B     		cmp	r3, #97
 809 0060 03D0     		beq	.L68
 810 0062 622B     		cmp	r3, #98
 811 0064 00F0EB80 		beq	.L69
 812 0068 E6E7     		b	.L62
 813              	.L68:
 221:main.c        ****         case 'a':
 222:main.c        ****             tilt_Write(0);
 814              		.loc 1 222 0
 815 006a 0020     		movs	r0, #0
 816 006c FFF7FEFF 		bl	tilt_Write
 817              	.LVL50:
 223:main.c        ****             switch(lectura){
 818              		.loc 1 223 0
 819 0070 7E4B     		ldr	r3, .L84+16
 820 0072 DB78     		ldrb	r3, [r3, #3]	@ zero_extendqisi2
 821 0074 462B     		cmp	r3, #70
 822 0076 04D0     		beq	.L71
 823 0078 542B     		cmp	r3, #84
 824 007a 0AD0     		beq	.L72
 825 007c 412B     		cmp	r3, #65
 826 007e 69D1     		bne	.L70
 827 0080 33E0     		b	.L73
 828              	.L71:
 224:main.c        ****                 case 'F':
 225:main.c        ****                     a_seg5=0;
 829              		.loc 1 225 0
 830 0082 0022     		movs	r2, #0
 831 0084 794B     		ldr	r3, .L84+16
 832 0086 5A75     		strb	r2, [r3, #21]
 226:main.c        ****                     print_f();
 833              		.loc 1 226 0
 834 0088 FFF7FEFF 		bl	print_f
 835              	.LVL51:
 227:main.c        ****                     reloj();
 836              		.loc 1 227 0
 837 008c FFF7FEFF 		bl	reloj
 838              	.LVL52:
 228:main.c        ****                     break;
 839              		.loc 1 228 0
 840 0090 69E0     		b	.L74
 841              	.L72:
ARM GAS  C:\Users\MIGUEL\AppData\Local\Temp\ccp6cAZ1.s 			page 20


 229:main.c        ****                 case 'T':
 230:main.c        ****                     a_seg5=0;
 842              		.loc 1 230 0
 843 0092 764B     		ldr	r3, .L84+16
 844 0094 0024     		movs	r4, #0
 845 0096 5C75     		strb	r4, [r3, #21]
 231:main.c        ****                     band_7seg=0;
 846              		.loc 1 231 0
 847 0098 DC71     		strb	r4, [r3, #7]
 232:main.c        ****                     LCD_Stop();
 848              		.loc 1 232 0
 849 009a FFF7FEFF 		bl	LCD_Stop
 850              	.LVL53:
 233:main.c        ****                     sprintf(seg_7,"%f",tem);
 851              		.loc 1 233 0
 852 009e 754B     		ldr	r3, .L84+24
 853 00a0 1868     		ldr	r0, [r3]	@ float
 854 00a2 FFF7FEFF 		bl	__aeabi_f2d
 855              	.LVL54:
 856 00a6 744D     		ldr	r5, .L84+28
 857 00a8 0246     		mov	r2, r0
 858 00aa 0B46     		mov	r3, r1
 859 00ac 7349     		ldr	r1, .L84+32
 860 00ae 2846     		mov	r0, r5
 861 00b0 FFF7FEFF 		bl	sprintf
 862              	.LVL55:
 234:main.c        ****                     LED_Driver_WriteString7Seg(seg_7,0);
 863              		.loc 1 234 0
 864 00b4 2146     		mov	r1, r4
 865 00b6 2846     		mov	r0, r5
 866 00b8 FFF7FEFF 		bl	LED_Driver_WriteString7Seg
 867              	.LVL56:
 235:main.c        ****                     LED_Driver_SetRC(6,2);
 868              		.loc 1 235 0
 869 00bc 0221     		movs	r1, #2
 870 00be 0620     		movs	r0, #6
 871 00c0 FFF7FEFF 		bl	LED_Driver_SetRC
 872              	.LVL57:
 236:main.c        ****                     LED_Driver_SetRC(5,2);
 873              		.loc 1 236 0
 874 00c4 0221     		movs	r1, #2
 875 00c6 0520     		movs	r0, #5
 876 00c8 FFF7FEFF 		bl	LED_Driver_SetRC
 877              	.LVL58:
 237:main.c        ****                     LED_Driver_SetRC(1,2);
 878              		.loc 1 237 0
 879 00cc 0221     		movs	r1, #2
 880 00ce 0120     		movs	r0, #1
 881 00d0 FFF7FEFF 		bl	LED_Driver_SetRC
 882              	.LVL59:
 238:main.c        ****                     LED_Driver_SetRC(0,2);                       
 883              		.loc 1 238 0
 884 00d4 0221     		movs	r1, #2
 885 00d6 2046     		mov	r0, r4
 886 00d8 FFF7FEFF 		bl	LED_Driver_SetRC
 887              	.LVL60:
 239:main.c        ****                     LED_Driver_Write7SegDigitHex(0xC,3);
ARM GAS  C:\Users\MIGUEL\AppData\Local\Temp\ccp6cAZ1.s 			page 21


 888              		.loc 1 239 0
 889 00dc 0321     		movs	r1, #3
 890 00de 0C20     		movs	r0, #12
 891 00e0 FFF7FEFF 		bl	LED_Driver_Write7SegDigitHex
 892              	.LVL61:
 240:main.c        ****                     reloj();
 893              		.loc 1 240 0
 894 00e4 FFF7FEFF 		bl	reloj
 895              	.LVL62:
 241:main.c        ****                     break;
 896              		.loc 1 241 0
 897 00e8 3DE0     		b	.L74
 898              	.L73:
 242:main.c        ****                 case 'A':
 243:main.c        ****                     a_seg5=1;
 899              		.loc 1 243 0
 900 00ea 604C     		ldr	r4, .L84+16
 901 00ec 0123     		movs	r3, #1
 902 00ee 6375     		strb	r3, [r4, #21]
 244:main.c        ****                     band_7seg=0;
 903              		.loc 1 244 0
 904 00f0 0023     		movs	r3, #0
 905 00f2 E371     		strb	r3, [r4, #7]
 245:main.c        ****                     LCD_Stop();
 906              		.loc 1 245 0
 907 00f4 FFF7FEFF 		bl	LCD_Stop
 908              	.LVL63:
 246:main.c        ****                     if(band_5seg==1){          
 909              		.loc 1 246 0
 910 00f8 E37D     		ldrb	r3, [r4, #23]	@ zero_extendqisi2
 911 00fa 012B     		cmp	r3, #1
 912 00fc 25D1     		bne	.L75
 247:main.c        ****                     sprintf(seg_7,"%f",tem);
 913              		.loc 1 247 0
 914 00fe 5D4B     		ldr	r3, .L84+24
 915 0100 1868     		ldr	r0, [r3]	@ float
 916 0102 FFF7FEFF 		bl	__aeabi_f2d
 917              	.LVL64:
 918 0106 5C4C     		ldr	r4, .L84+28
 919 0108 0246     		mov	r2, r0
 920 010a 0B46     		mov	r3, r1
 921 010c 5B49     		ldr	r1, .L84+32
 922 010e 2046     		mov	r0, r4
 923 0110 FFF7FEFF 		bl	sprintf
 924              	.LVL65:
 248:main.c        ****                     LED_Driver_WriteString7Seg(seg_7,0);
 925              		.loc 1 248 0
 926 0114 0021     		movs	r1, #0
 927 0116 2046     		mov	r0, r4
 928 0118 FFF7FEFF 		bl	LED_Driver_WriteString7Seg
 929              	.LVL66:
 249:main.c        ****                     LED_Driver_SetRC(6,2);
 930              		.loc 1 249 0
 931 011c 0221     		movs	r1, #2
 932 011e 0620     		movs	r0, #6
 933 0120 FFF7FEFF 		bl	LED_Driver_SetRC
 934              	.LVL67:
ARM GAS  C:\Users\MIGUEL\AppData\Local\Temp\ccp6cAZ1.s 			page 22


 250:main.c        ****                     LED_Driver_SetRC(5,2);
 935              		.loc 1 250 0
 936 0124 0221     		movs	r1, #2
 937 0126 0520     		movs	r0, #5
 938 0128 FFF7FEFF 		bl	LED_Driver_SetRC
 939              	.LVL68:
 251:main.c        ****                     LED_Driver_SetRC(1,2);
 940              		.loc 1 251 0
 941 012c 0221     		movs	r1, #2
 942 012e 0120     		movs	r0, #1
 943 0130 FFF7FEFF 		bl	LED_Driver_SetRC
 944              	.LVL69:
 252:main.c        ****                     LED_Driver_SetRC(0,2);
 945              		.loc 1 252 0
 946 0134 0221     		movs	r1, #2
 947 0136 0020     		movs	r0, #0
 948 0138 FFF7FEFF 		bl	LED_Driver_SetRC
 949              	.LVL70:
 253:main.c        ****                     LED_Driver_Write7SegDigitHex(0xC,3);
 950              		.loc 1 253 0
 951 013c 0321     		movs	r1, #3
 952 013e 0C20     		movs	r0, #12
 953 0140 FFF7FEFF 		bl	LED_Driver_Write7SegDigitHex
 954              	.LVL71:
 254:main.c        ****                     reloj();
 955              		.loc 1 254 0
 956 0144 FFF7FEFF 		bl	reloj
 957              	.LVL72:
 958 0148 04E0     		b	.L70
 959              	.L75:
 255:main.c        ****                     }
 256:main.c        ****                     else if (band_5seg==0){           
 960              		.loc 1 256 0
 961 014a 1BB9     		cbnz	r3, .L70
 257:main.c        ****                     print_f();
 962              		.loc 1 257 0
 963 014c FFF7FEFF 		bl	print_f
 964              	.LVL73:
 258:main.c        ****                     reloj();
 965              		.loc 1 258 0
 966 0150 FFF7FEFF 		bl	reloj
 967              	.LVL74:
 968              	.L70:
 259:main.c        ****                     }
 260:main.c        ****                 
 261:main.c        ****                 default:
 262:main.c        ****                     a_seg5=0;
 969              		.loc 1 262 0
 970 0154 454C     		ldr	r4, .L84+16
 971 0156 0023     		movs	r3, #0
 972 0158 6375     		strb	r3, [r4, #21]
 263:main.c        ****                     LCD_Start();
 973              		.loc 1 263 0
 974 015a FFF7FEFF 		bl	LCD_Start
 975              	.LVL75:
 264:main.c        ****                     band_7seg=1;
 976              		.loc 1 264 0
ARM GAS  C:\Users\MIGUEL\AppData\Local\Temp\ccp6cAZ1.s 			page 23


 977 015e 0123     		movs	r3, #1
 978 0160 E371     		strb	r3, [r4, #7]
 265:main.c        ****                     reloj();
 979              		.loc 1 265 0
 980 0162 FFF7FEFF 		bl	reloj
 981              	.LVL76:
 982              	.L74:
 266:main.c        ****                     break;                 
 267:main.c        ****             }
 268:main.c        ****             
 269:main.c        ****             if ((band_aumento==1)|(band_dismi==1)){
 983              		.loc 1 269 0
 984 0166 414B     		ldr	r3, .L84+16
 985 0168 5A78     		ldrb	r2, [r3, #1]	@ zero_extendqisi2
 986 016a 9B78     		ldrb	r3, [r3, #2]	@ zero_extendqisi2
 987 016c 012B     		cmp	r3, #1
 988 016e 18BF     		it	ne
 989 0170 012A     		cmpne	r2, #1
 990 0172 25D1     		bne	.L76
 270:main.c        ****                 a_seg10=1;
 991              		.loc 1 270 0
 992 0174 3D49     		ldr	r1, .L84+16
 993 0176 0120     		movs	r0, #1
 994 0178 0876     		strb	r0, [r1, #24]
 271:main.c        ****                 seg10=0;
 995              		.loc 1 271 0
 996 017a 0020     		movs	r0, #0
 997 017c 4876     		strb	r0, [r1, #25]
 272:main.c        ****                 if (band_aumento==1&&fl<=100){
 998              		.loc 1 272 0
 999 017e 012A     		cmp	r2, #1
 1000 0180 08D1     		bne	.L77
 1001              		.loc 1 272 0 is_stmt 0 discriminator 1
 1002 0182 0A69     		ldr	r2, [r1, #16]
 1003 0184 642A     		cmp	r2, #100
 1004 0186 05DC     		bgt	.L77
 273:main.c        ****                     fl=fl+5;
 1005              		.loc 1 273 0 is_stmt 1
 1006 0188 0532     		adds	r2, r2, #5
 1007 018a 0A61     		str	r2, [r1, #16]
 274:main.c        ****                     if(fl>100){
 1008              		.loc 1 274 0
 1009 018c 642A     		cmp	r2, #100
 1010 018e 01DD     		ble	.L77
 275:main.c        ****                         fl=0;
 1011              		.loc 1 275 0
 1012 0190 364A     		ldr	r2, .L84+16
 1013 0192 1061     		str	r0, [r2, #16]
 1014              	.L77:
 276:main.c        ****                     }
 277:main.c        ****                 }
 278:main.c        ****                 if (band_dismi==1&&fl>=0){
 1015              		.loc 1 278 0
 1016 0194 012B     		cmp	r3, #1
 1017 0196 0BD1     		bne	.L78
 1018              		.loc 1 278 0 is_stmt 0 discriminator 1
 1019 0198 344B     		ldr	r3, .L84+16
ARM GAS  C:\Users\MIGUEL\AppData\Local\Temp\ccp6cAZ1.s 			page 24


 1020 019a 1B69     		ldr	r3, [r3, #16]
 1021 019c 002B     		cmp	r3, #0
 1022 019e 07DB     		blt	.L78
 279:main.c        ****                     fl=fl-5;
 1023              		.loc 1 279 0 is_stmt 1
 1024 01a0 053B     		subs	r3, r3, #5
 1025 01a2 324A     		ldr	r2, .L84+16
 1026 01a4 1361     		str	r3, [r2, #16]
 280:main.c        ****                     if(fl<0){
 1027              		.loc 1 280 0
 1028 01a6 002B     		cmp	r3, #0
 1029 01a8 02DA     		bge	.L78
 281:main.c        ****                         fl=100;
 1030              		.loc 1 281 0
 1031 01aa 6422     		movs	r2, #100
 1032 01ac 2F4B     		ldr	r3, .L84+16
 1033 01ae 1A61     		str	r2, [r3, #16]
 1034              	.L78:
 282:main.c        ****                     }
 283:main.c        ****                 }
 284:main.c        ****                 
 285:main.c        ****                 con_mot();
 1035              		.loc 1 285 0
 1036 01b0 FFF7FEFF 		bl	con_mot
 1037              	.LVL77:
 286:main.c        ****                 print_f();
 1038              		.loc 1 286 0
 1039 01b4 FFF7FEFF 		bl	print_f
 1040              	.LVL78:
 287:main.c        ****                 band_aumento=0;
 1041              		.loc 1 287 0
 1042 01b8 2C4B     		ldr	r3, .L84+16
 1043 01ba 0022     		movs	r2, #0
 1044 01bc 5A70     		strb	r2, [r3, #1]
 288:main.c        ****                 band_dismi=0;
 1045              		.loc 1 288 0
 1046 01be 9A70     		strb	r2, [r3, #2]
 1047              	.L76:
 289:main.c        ****                 
 290:main.c        ****             
 291:main.c        ****             }
 292:main.c        ****             if (band_10seg==1){
 1048              		.loc 1 292 0
 1049 01c0 2A4B     		ldr	r3, .L84+16
 1050 01c2 9B7E     		ldrb	r3, [r3, #26]	@ zero_extendqisi2
 1051 01c4 012B     		cmp	r3, #1
 1052 01c6 07D1     		bne	.L79
 293:main.c        ****                 a_seg10=0;
 1053              		.loc 1 293 0
 1054 01c8 284B     		ldr	r3, .L84+16
 1055 01ca 0022     		movs	r2, #0
 1056 01cc 1A76     		strb	r2, [r3, #24]
 294:main.c        ****                 band_10seg=0;
 1057              		.loc 1 294 0
 1058 01ce 9A76     		strb	r2, [r3, #26]
 295:main.c        ****                 PWM_WriteCompare(compare);   
 1059              		.loc 1 295 0
ARM GAS  C:\Users\MIGUEL\AppData\Local\Temp\ccp6cAZ1.s 			page 25


 1060 01d0 274B     		ldr	r3, .L84+20
 1061 01d2 9888     		ldrh	r0, [r3, #4]
 1062 01d4 FFF7FEFF 		bl	PWM_WriteCompare
 1063              	.LVL79:
 1064              	.L79:
 296:main.c        ****                 }
 297:main.c        ****             if ((tem>30.00)|(tem<25.00)){
 1065              		.loc 1 297 0
 1066 01d8 264B     		ldr	r3, .L84+24
 1067 01da 1D68     		ldr	r5, [r3]	@ float
 1068 01dc 4FF00106 		mov	r6, #1
 1069 01e0 2749     		ldr	r1, .L84+36
 1070 01e2 2846     		mov	r0, r5
 1071 01e4 FFF7FEFF 		bl	__aeabi_fcmpgt
 1072              	.LVL80:
 1073 01e8 08B9     		cbnz	r0, .L80
 1074 01ea 4FF00006 		mov	r6, #0
 1075              	.L80:
 1076 01ee 4FF00104 		mov	r4, #1
 1077 01f2 2449     		ldr	r1, .L84+40
 1078 01f4 2846     		mov	r0, r5
 1079 01f6 FFF7FEFF 		bl	__aeabi_fcmplt
 1080              	.LVL81:
 1081 01fa 08B9     		cbnz	r0, .L81
 1082 01fc 4FF00004 		mov	r4, #0
 1083              	.L81:
 1084 0200 3443     		orrs	r4, r4, r6
 1085 0202 14F0FF0F 		tst	r4, #255
 1086 0206 0DD0     		beq	.L82
 298:main.c        ****                 band_aviso=1;
 1087              		.loc 1 298 0
 1088 0208 184B     		ldr	r3, .L84+16
 1089 020a 0122     		movs	r2, #1
 1090 020c 9A72     		strb	r2, [r3, #10]
 299:main.c        ****                 if (band_tem==0){
 1091              		.loc 1 299 0
 1092 020e 9B7F     		ldrb	r3, [r3, #30]	@ zero_extendqisi2
 1093 0210 002B     		cmp	r3, #0
 1094 0212 7FF411AF 		bne	.L62
 300:main.c        ****                 UART_1_PutString("Temperatura fuera de rango \n");
 1095              		.loc 1 300 0
 1096 0216 1C48     		ldr	r0, .L84+44
 1097 0218 FFF7FEFF 		bl	UART_1_PutString
 1098              	.LVL82:
 301:main.c        ****                 band_tem=1;
 1099              		.loc 1 301 0
 1100 021c 0122     		movs	r2, #1
 1101 021e 134B     		ldr	r3, .L84+16
 1102 0220 9A77     		strb	r2, [r3, #30]
 1103 0222 09E7     		b	.L62
 1104              	.L82:
 302:main.c        ****                 }
 303:main.c        ****             }
 304:main.c        ****             else{
 305:main.c        ****                 if (band_tem==1){
 1105              		.loc 1 305 0
 1106 0224 114B     		ldr	r3, .L84+16
ARM GAS  C:\Users\MIGUEL\AppData\Local\Temp\ccp6cAZ1.s 			page 26


 1107 0226 9B7F     		ldrb	r3, [r3, #30]	@ zero_extendqisi2
 1108 0228 012B     		cmp	r3, #1
 1109 022a 7FF405AF 		bne	.L62
 306:main.c        ****                 band_tem=0;
 1110              		.loc 1 306 0
 1111 022e 0F4B     		ldr	r3, .L84+16
 1112 0230 0022     		movs	r2, #0
 1113 0232 9A77     		strb	r2, [r3, #30]
 307:main.c        ****                 band_aviso=0;
 1114              		.loc 1 307 0
 1115 0234 9A72     		strb	r2, [r3, #10]
 308:main.c        ****                 aviso_Write(~0x1F);
 1116              		.loc 1 308 0
 1117 0236 E020     		movs	r0, #224
 1118 0238 FFF7FEFF 		bl	aviso_Write
 1119              	.LVL83:
 1120 023c FCE6     		b	.L62
 1121              	.L69:
 309:main.c        ****                 }
 310:main.c        ****             }
 311:main.c        ****             break;
 312:main.c        ****             
 313:main.c        ****         case 'b':
 314:main.c        ****             aviso_Write(~0x1F);
 1122              		.loc 1 314 0
 1123 023e E020     		movs	r0, #224
 1124 0240 FFF7FEFF 		bl	aviso_Write
 1125              	.LVL84:
 315:main.c        ****             band_aviso=0;
 1126              		.loc 1 315 0
 1127 0244 0022     		movs	r2, #0
 1128 0246 094B     		ldr	r3, .L84+16
 1129 0248 9A72     		strb	r2, [r3, #10]
 316:main.c        ****             LCD_Start();
 1130              		.loc 1 316 0
 1131 024a FFF7FEFF 		bl	LCD_Start
 1132              	.LVL85:
 317:main.c        ****             apagado();
 1133              		.loc 1 317 0
 1134 024e FFF7FEFF 		bl	apagado
 1135              	.LVL86:
 318:main.c        ****             break;
 1136              		.loc 1 318 0
 1137 0252 F1E6     		b	.L62
 1138              	.L64:
 319:main.c        ****     }
 320:main.c        ****     }
 321:main.c        ****     else{
 322:main.c        ****     apagado();
 1139              		.loc 1 322 0
 1140 0254 FFF7FEFF 		bl	apagado
 1141              	.LVL87:
 1142 0258 EEE6     		b	.L62
 1143              	.L85:
 1144 025a 00BF     		.align	2
 1145              	.L84:
 1146 025c 00000000 		.word	contar
ARM GAS  C:\Users\MIGUEL\AppData\Local\Temp\ccp6cAZ1.s 			page 27


 1147 0260 00000000 		.word	datos
 1148 0264 00000000 		.word	aumento
 1149 0268 00000000 		.word	disminu
 1150 026c 00000000 		.word	.LANCHOR0
 1151 0270 00000000 		.word	.LANCHOR1
 1152 0274 00000000 		.word	tem
 1153 0278 00000000 		.word	seg_7
 1154 027c 88000000 		.word	.LC7
 1155 0280 0000F041 		.word	1106247680
 1156 0284 0000C841 		.word	1103626240
 1157 0288 8C000000 		.word	.LC8
 1158              		.cfi_endproc
 1159              	.LFE75:
 1160              		.size	main, .-main
 1161              		.global	direc
 1162              		.global	ledindx
 1163              		.global	ledval
 1164              		.global	band_aviso
 1165              		.global	band_tem
 1166              		.comm	tem,4,4
 1167              		.comm	en,2,2
 1168              		.comm	vol,2,2
 1169              		.global	a_seg10
 1170              		.global	band_10seg
 1171              		.global	seg10
 1172              		.global	band_dismi
 1173              		.global	band_aumento
 1174              		.global	compare
 1175              		.comm	seggs,50,4
 1176              		.global	lectura_p
 1177              		.comm	seg_7,4,4
 1178              		.global	time
 1179              		.global	a_seg5
 1180              		.global	band_lcd
 1181              		.global	band_5seg
 1182              		.global	band_7seg
 1183              		.global	seg5
 1184              		.global	c
 1185              		.global	timer
 1186              		.global	mili
 1187              		.global	min
 1188              		.global	h
 1189              		.global	seg
 1190              		.global	fl
 1191              		.global	bandera
 1192              		.global	lectura
 1193              		.data
 1194              		.align	2
 1195              		.set	.LANCHOR1,. + 0
 1196              		.type	ledval, %object
 1197              		.size	ledval, 4
 1198              	ledval:
 1199 0000 03       		.byte	3
 1200 0001 07       		.byte	7
 1201 0002 0F       		.byte	15
 1202 0003 1F       		.byte	31
 1203              		.type	compare, %object
ARM GAS  C:\Users\MIGUEL\AppData\Local\Temp\ccp6cAZ1.s 			page 28


 1204              		.size	compare, 2
 1205              	compare:
 1206 0004 E703     		.short	999
 1207              		.type	lectura_p, %object
 1208              		.size	lectura_p, 1
 1209              	lectura_p:
 1210 0006 62       		.byte	98
 1211 0007 00       		.space	1
 1212              		.type	time, %object
 1213              		.size	time, 4
 1214              	time:
 1215 0008 30303030 		.ascii	"0000"
 1216              		.section	.rodata.str1.4,"aMS",%progbits,1
 1217              		.align	2
 1218              	.LC0:
 1219 0000 204C4344 		.ascii	" LCD\000"
 1219      00
 1220 0005 000000   		.space	3
 1221              	.LC1:
 1222 0008 54656D70 		.ascii	"Temperatura:   %.1fC\000"
 1222      65726174 
 1222      7572613A 
 1222      20202025 
 1222      2E316643 
 1223 001d 000000   		.space	3
 1224              	.LC2:
 1225 0020 466C756A 		.ascii	"Flujo:           %2d%%\000"
 1225      6F3A2020 
 1225      20202020 
 1225      20202020 
 1225      20253264 
 1226 0037 00       		.space	1
 1227              	.LC3:
 1228 0038 5469656D 		.ascii	"Tiempo:     %02d:%02d:%02d\000"
 1228      706F3A20 
 1228      20202020 
 1228      25303264 
 1228      3A253032 
 1229 0053 00       		.space	1
 1230              	.LC4:
 1231 0054 44697370 		.ascii	"Dispositivo apagado \012\000"
 1231      6F736974 
 1231      69766F20 
 1231      61706167 
 1231      61646F20 
 1232 006a 0000     		.space	2
 1233              	.LC5:
 1234 006c 44697370 		.ascii	"Dispositivo apagado\000"
 1234      6F736974 
 1234      69766F20 
 1234      61706167 
 1234      61646F00 
 1235              	.LC6:
 1236 0080 46253033 		.ascii	"F%03d\000"
 1236      6400
 1237 0086 0000     		.space	2
 1238              	.LC7:
ARM GAS  C:\Users\MIGUEL\AppData\Local\Temp\ccp6cAZ1.s 			page 29


 1239 0088 256600   		.ascii	"%f\000"
 1240 008b 00       		.space	1
 1241              	.LC8:
 1242 008c 54656D70 		.ascii	"Temperatura fuera de rango \012\000"
 1242      65726174 
 1242      75726120 
 1242      66756572 
 1242      61206465 
 1243              		.bss
 1244              		.align	2
 1245              		.set	.LANCHOR0,. + 0
 1246              		.type	timer, %object
 1247              		.size	timer, 1
 1248              	timer:
 1249 0000 00       		.space	1
 1250              		.type	band_aumento, %object
 1251              		.size	band_aumento, 1
 1252              	band_aumento:
 1253 0001 00       		.space	1
 1254              		.type	band_dismi, %object
 1255              		.size	band_dismi, 1
 1256              	band_dismi:
 1257 0002 00       		.space	1
 1258              		.type	lectura, %object
 1259              		.size	lectura, 1
 1260              	lectura:
 1261 0003 00       		.space	1
 1262              		.type	bandera, %object
 1263              		.size	bandera, 1
 1264              	bandera:
 1265 0004 00       		.space	1
 1266              		.type	ledindx, %object
 1267              		.size	ledindx, 1
 1268              	ledindx:
 1269 0005 00       		.space	1
 1270              		.type	direc, %object
 1271              		.size	direc, 1
 1272              	direc:
 1273 0006 00       		.space	1
 1274              		.type	band_7seg, %object
 1275              		.size	band_7seg, 1
 1276              	band_7seg:
 1277 0007 00       		.space	1
 1278              		.type	mili, %object
 1279              		.size	mili, 2
 1280              	mili:
 1281 0008 0000     		.space	2
 1282              		.type	band_aviso, %object
 1283              		.size	band_aviso, 1
 1284              	band_aviso:
 1285 000a 00       		.space	1
 1286              		.type	min, %object
 1287              		.size	min, 1
 1288              	min:
 1289 000b 00       		.space	1
 1290              		.type	h, %object
 1291              		.size	h, 1
ARM GAS  C:\Users\MIGUEL\AppData\Local\Temp\ccp6cAZ1.s 			page 30


 1292              	h:
 1293 000c 00       		.space	1
 1294 000d 000000   		.space	3
 1295              		.type	fl, %object
 1296              		.size	fl, 4
 1297              	fl:
 1298 0010 00000000 		.space	4
 1299              		.type	seg, %object
 1300              		.size	seg, 1
 1301              	seg:
 1302 0014 00       		.space	1
 1303              		.type	a_seg5, %object
 1304              		.size	a_seg5, 1
 1305              	a_seg5:
 1306 0015 00       		.space	1
 1307              		.type	seg5, %object
 1308              		.size	seg5, 1
 1309              	seg5:
 1310 0016 00       		.space	1
 1311              		.type	band_5seg, %object
 1312              		.size	band_5seg, 1
 1313              	band_5seg:
 1314 0017 00       		.space	1
 1315              		.type	a_seg10, %object
 1316              		.size	a_seg10, 1
 1317              	a_seg10:
 1318 0018 00       		.space	1
 1319              		.type	seg10, %object
 1320              		.size	seg10, 1
 1321              	seg10:
 1322 0019 00       		.space	1
 1323              		.type	band_10seg, %object
 1324              		.size	band_10seg, 1
 1325              	band_10seg:
 1326 001a 00       		.space	1
 1327 001b 00       		.space	1
 1328              		.type	c, %object
 1329              		.size	c, 2
 1330              	c:
 1331 001c 0000     		.space	2
 1332              		.type	band_tem, %object
 1333              		.size	band_tem, 1
 1334              	band_tem:
 1335 001e 00       		.space	1
 1336              		.type	band_lcd, %object
 1337              		.size	band_lcd, 1
 1338              	band_lcd:
 1339 001f 00       		.space	1
 1340              		.text
 1341              	.Letext0:
 1342              		.file 2 "c:\\program files (x86)\\cypress\\psoc creator\\4.4\\psoc creator\\import\\gnu\\arm\\5.4.
 1343              		.file 3 "c:\\program files (x86)\\cypress\\psoc creator\\4.4\\psoc creator\\import\\gnu\\arm\\5.4.
 1344              		.file 4 "Generated_Source\\PSoC5/cytypes.h"
 1345              		.file 5 "Generated_Source\\PSoC5/core_cm3.h"
 1346              		.file 6 "Generated_Source\\PSoC5/UART_1.h"
 1347              		.file 7 "Generated_Source\\PSoC5/aviso.h"
 1348              		.file 8 "Generated_Source\\PSoC5/LCD.h"
ARM GAS  C:\Users\MIGUEL\AppData\Local\Temp\ccp6cAZ1.s 			page 31


 1349              		.file 9 "Generated_Source\\PSoC5/LED_Driver.h"
 1350              		.file 10 "c:\\program files (x86)\\cypress\\psoc creator\\4.4\\psoc creator\\import\\gnu\\arm\\5.4
 1351              		.file 11 "Generated_Source\\PSoC5/ADC.h"
 1352              		.file 12 "Generated_Source\\PSoC5/tilt.h"
 1353              		.file 13 "Generated_Source\\PSoC5/Counter_1.h"
 1354              		.file 14 "Generated_Source\\PSoC5/isr_contador.h"
 1355              		.file 15 "Generated_Source\\PSoC5/data.h"
 1356              		.file 16 "Generated_Source\\PSoC5/PWM.h"
 1357              		.file 17 "Generated_Source\\PSoC5/aum.h"
 1358              		.file 18 "Generated_Source\\PSoC5/dism.h"
 1359              		.file 19 "Generated_Source\\PSoC5/Opamp.h"