ARM GAS  C:\Users\TATIAN~1\AppData\Local\Temp\cc3p5YTX.s 			page 1


   1              		.syntax unified
   2              		.cpu cortex-m3
   3              		.fpu softvfp
   4              		.eabi_attribute 20, 1
   5              		.eabi_attribute 21, 1
   6              		.eabi_attribute 23, 3
   7              		.eabi_attribute 24, 1
   8              		.eabi_attribute 25, 1
   9              		.eabi_attribute 26, 1
  10              		.eabi_attribute 30, 1
  11              		.eabi_attribute 34, 1
  12              		.eabi_attribute 18, 4
  13              		.thumb
  14              		.syntax unified
  15              		.file	"main.c"
  16              		.text
  17              	.Ltext0:
  18              		.cfi_sections	.debug_frame
  19              		.section	.text.aumento,"ax",%progbits
  20              		.align	2
  21              		.global	aumento
  22              		.thumb
  23              		.thumb_func
  24              		.type	aumento, %function
  25              	aumento:
  26              	.LFB63:
  27              		.file 1 "main.c"
   1:main.c        **** /* ========================================
   2:main.c        ****  *
   3:main.c        ****  * Copyright YOUR COMPANY, THE YEAR
   4:main.c        ****  * All Rights Reserved
   5:main.c        ****  * UNPUBLISHED, LICENSED SOFTWARE.
   6:main.c        ****  *
   7:main.c        ****  * CONFIDENTIAL AND PROPRIETARY INFORMATION
   8:main.c        ****  * WHICH IS THE PROPERTY OF your company.
   9:main.c        ****  *
  10:main.c        ****  * ========================================
  11:main.c        **** */
  12:main.c        **** #include "project.h"
  13:main.c        **** uint32 comparar=400;
  14:main.c        **** uint32 angulo=0;
  15:main.c        **** 
  16:main.c        **** CY_ISR(aumento){
  28              		.loc 1 16 0
  29              		.cfi_startproc
  30              		@ args = 0, pretend = 0, frame = 0
  31              		@ frame_needed = 0, uses_anonymous_args = 0
  32 0000 08B5     		push	{r3, lr}
  33              		.cfi_def_cfa_offset 8
  34              		.cfi_offset 3, -8
  35              		.cfi_offset 14, -4
  17:main.c        ****     lcd_ClearDisplay();
  36              		.loc 1 17 0
  37 0002 0120     		movs	r0, #1
  38 0004 FFF7FEFF 		bl	lcd_WriteControl
  39              	.LVL0:
  18:main.c        ****     comparar=comparar+50;
ARM GAS  C:\Users\TATIAN~1\AppData\Local\Temp\cc3p5YTX.s 			page 2


  40              		.loc 1 18 0
  41 0008 034B     		ldr	r3, .L3
  42 000a 1868     		ldr	r0, [r3]
  43 000c 3230     		adds	r0, r0, #50
  44 000e 1860     		str	r0, [r3]
  19:main.c        ****     PWM_WriteCompare(comparar);
  45              		.loc 1 19 0
  46 0010 80B2     		uxth	r0, r0
  47 0012 FFF7FEFF 		bl	PWM_WriteCompare
  48              	.LVL1:
  49 0016 08BD     		pop	{r3, pc}
  50              	.L4:
  51              		.align	2
  52              	.L3:
  53 0018 00000000 		.word	.LANCHOR0
  54              		.cfi_endproc
  55              	.LFE63:
  56              		.size	aumento, .-aumento
  57              		.section	.text.disminuye,"ax",%progbits
  58              		.align	2
  59              		.global	disminuye
  60              		.thumb
  61              		.thumb_func
  62              		.type	disminuye, %function
  63              	disminuye:
  64              	.LFB64:
  20:main.c        **** }
  21:main.c        **** 
  22:main.c        **** CY_ISR(disminuye){
  65              		.loc 1 22 0
  66              		.cfi_startproc
  67              		@ args = 0, pretend = 0, frame = 0
  68              		@ frame_needed = 0, uses_anonymous_args = 0
  69 0000 08B5     		push	{r3, lr}
  70              		.cfi_def_cfa_offset 8
  71              		.cfi_offset 3, -8
  72              		.cfi_offset 14, -4
  23:main.c        ****     lcd_ClearDisplay();
  73              		.loc 1 23 0
  74 0002 0120     		movs	r0, #1
  75 0004 FFF7FEFF 		bl	lcd_WriteControl
  76              	.LVL2:
  24:main.c        ****     comparar=comparar-50;
  77              		.loc 1 24 0
  78 0008 034B     		ldr	r3, .L7
  79 000a 1868     		ldr	r0, [r3]
  80 000c 3238     		subs	r0, r0, #50
  81 000e 1860     		str	r0, [r3]
  25:main.c        ****     PWM_WriteCompare(comparar);
  82              		.loc 1 25 0
  83 0010 80B2     		uxth	r0, r0
  84 0012 FFF7FEFF 		bl	PWM_WriteCompare
  85              	.LVL3:
  86 0016 08BD     		pop	{r3, pc}
  87              	.L8:
  88              		.align	2
  89              	.L7:
ARM GAS  C:\Users\TATIAN~1\AppData\Local\Temp\cc3p5YTX.s 			page 3


  90 0018 00000000 		.word	.LANCHOR0
  91              		.cfi_endproc
  92              	.LFE64:
  93              		.size	disminuye, .-disminuye
  94              		.section	.text.main,"ax",%progbits
  95              		.align	2
  96              		.global	main
  97              		.thumb
  98              		.thumb_func
  99              		.type	main, %function
 100              	main:
 101              	.LFB65:
  26:main.c        **** }
  27:main.c        **** 
  28:main.c        **** int main(void)
  29:main.c        **** {
 102              		.loc 1 29 0
 103              		.cfi_startproc
 104              		@ Volatile: function does not return.
 105              		@ args = 0, pretend = 0, frame = 0
 106              		@ frame_needed = 0, uses_anonymous_args = 0
 107 0000 08B5     		push	{r3, lr}
 108              		.cfi_def_cfa_offset 8
 109              		.cfi_offset 3, -8
 110              		.cfi_offset 14, -4
  30:main.c        ****     CyGlobalIntEnable; /* Enable global interrupts. */
 111              		.loc 1 30 0
 112              		.syntax unified
 113              	@ 30 "main.c" 1
 114 0002 62B6     		CPSIE   i
 115              	@ 0 "" 2
  31:main.c        **** 
  32:main.c        ****     /* Place your initialization/startup code here (e.g. MyInst_Start()) */
  33:main.c        ****     PWM_Start();
 116              		.loc 1 33 0
 117              		.thumb
 118              		.syntax unified
 119 0004 FFF7FEFF 		bl	PWM_Start
 120              	.LVL4:
  34:main.c        ****     aum_StartEx(aumento);
 121              		.loc 1 34 0
 122 0008 1148     		ldr	r0, .L12
 123 000a FFF7FEFF 		bl	aum_StartEx
 124              	.LVL5:
  35:main.c        ****     dis_StartEx(disminuye);
 125              		.loc 1 35 0
 126 000e 1148     		ldr	r0, .L12+4
 127 0010 FFF7FEFF 		bl	dis_StartEx
 128              	.LVL6:
  36:main.c        ****     lcd_Start();
 129              		.loc 1 36 0
 130 0014 FFF7FEFF 		bl	lcd_Start
 131              	.LVL7:
 132              	.L10:
  37:main.c        ****     
  38:main.c        ****     for(;;)
  39:main.c        ****     {
ARM GAS  C:\Users\TATIAN~1\AppData\Local\Temp\cc3p5YTX.s 			page 4


  40:main.c        ****         /* Place your application code here. */
  41:main.c        ****         angulo=((comparar-400)*9/100);
 133              		.loc 1 41 0 discriminator 1
 134 0018 0F4D     		ldr	r5, .L12+8
 135 001a 2B68     		ldr	r3, [r5]
 136 001c 03EBC303 		add	r3, r3, r3, lsl #3
 137 0020 A3F56163 		sub	r3, r3, #3600
 138 0024 0D4A     		ldr	r2, .L12+12
 139 0026 A2FB0323 		umull	r2, r3, r2, r3
 140 002a 5B09     		lsrs	r3, r3, #5
 141 002c 0C4C     		ldr	r4, .L12+16
 142 002e 2360     		str	r3, [r4]
  42:main.c        ****         lcd_Position(0,0);
 143              		.loc 1 42 0 discriminator 1
 144 0030 0021     		movs	r1, #0
 145 0032 0846     		mov	r0, r1
 146 0034 FFF7FEFF 		bl	lcd_Position
 147              	.LVL8:
  43:main.c        ****         lcd_PrintNumber(comparar);
 148              		.loc 1 43 0 discriminator 1
 149 0038 2888     		ldrh	r0, [r5]
 150 003a FFF7FEFF 		bl	lcd_PrintU32Number
 151              	.LVL9:
  44:main.c        ****         lcd_Position(01,0);
 152              		.loc 1 44 0 discriminator 1
 153 003e 0021     		movs	r1, #0
 154 0040 0120     		movs	r0, #1
 155 0042 FFF7FEFF 		bl	lcd_Position
 156              	.LVL10:
  45:main.c        ****         lcd_PrintNumber(angulo);
 157              		.loc 1 45 0 discriminator 1
 158 0046 2088     		ldrh	r0, [r4]
 159 0048 FFF7FEFF 		bl	lcd_PrintU32Number
 160              	.LVL11:
 161 004c E4E7     		b	.L10
 162              	.L13:
 163 004e 00BF     		.align	2
 164              	.L12:
 165 0050 00000000 		.word	aumento
 166 0054 00000000 		.word	disminuye
 167 0058 00000000 		.word	.LANCHOR0
 168 005c 1F85EB51 		.word	1374389535
 169 0060 00000000 		.word	.LANCHOR1
 170              		.cfi_endproc
 171              	.LFE65:
 172              		.size	main, .-main
 173              		.global	angulo
 174              		.global	comparar
 175              		.data
 176              		.align	2
 177              		.set	.LANCHOR0,. + 0
 178              		.type	comparar, %object
 179              		.size	comparar, 4
 180              	comparar:
 181 0000 90010000 		.word	400
 182              		.bss
 183              		.align	2
ARM GAS  C:\Users\TATIAN~1\AppData\Local\Temp\cc3p5YTX.s 			page 5


 184              		.set	.LANCHOR1,. + 0
 185              		.type	angulo, %object
 186              		.size	angulo, 4
 187              	angulo:
 188 0000 00000000 		.space	4
 189              		.text
 190              	.Letext0:
 191              		.file 2 "c:\\program files (x86)\\cypress\\psoc creator\\4.4\\psoc creator\\import\\gnu\\arm\\5.4.
 192              		.file 3 "c:\\program files (x86)\\cypress\\psoc creator\\4.4\\psoc creator\\import\\gnu\\arm\\5.4.
 193              		.file 4 "Generated_Source\\PSoC5/cytypes.h"
 194              		.file 5 "Generated_Source\\PSoC5/core_cm3.h"
 195              		.file 6 "Generated_Source\\PSoC5/lcd.h"
 196              		.file 7 "Generated_Source\\PSoC5/PWM.h"
 197              		.file 8 "Generated_Source\\PSoC5/aum.h"
 198              		.file 9 "Generated_Source\\PSoC5/dis.h"