ARM GAS  C:\Users\MIGUEL\AppData\Local\Temp\ccivZ9cy.s 			page 1


   1              		.syntax unified
   2              		.cpu cortex-m3
   3              		.fpu softvfp
   4              		.eabi_attribute 20, 1
   5              		.eabi_attribute 21, 1
   6              		.eabi_attribute 23, 3
   7              		.eabi_attribute 24, 1
   8              		.eabi_attribute 25, 1
   9              		.eabi_attribute 26, 1
  10              		.eabi_attribute 30, 1
  11              		.eabi_attribute 34, 1
  12              		.eabi_attribute 18, 4
  13              		.thumb
  14              		.syntax unified
  15              		.file	"main.c"
  16              		.text
  17              	.Ltext0:
  18              		.cfi_sections	.debug_frame
  19              		.section	.text.contar,"ax",%progbits
  20              		.align	2
  21              		.global	contar
  22              		.thumb
  23              		.thumb_func
  24              		.type	contar, %function
  25              	contar:
  26              	.LFB64:
  27              		.file 1 "main.c"
   1:main.c        **** /* ========================================
   2:main.c        ****  *
   3:main.c        ****  * Copyright YOUR COMPANY, THE YEAR
   4:main.c        ****  * All Rights Reserved
   5:main.c        ****  * UNPUBLISHED, LICENSED SOFTWARE.
   6:main.c        ****  *
   7:main.c        ****  * CONFIDENTIAL AND PROPRIETARY INFORMATION
   8:main.c        ****  * WHICH IS THE PROPERTY OF your company.
   9:main.c        ****  *
  10:main.c        ****  * ========================================
  11:main.c        **** */
  12:main.c        **** #include "project.h"
  13:main.c        **** #include <stdio.h>
  14:main.c        **** #include <stdlib.h>
  15:main.c        **** uint8 seg=0;
  16:main.c        **** uint8 min=0;
  17:main.c        **** uint16 mili=0;
  18:main.c        **** uint8 timer=0;
  19:main.c        **** char time[4]="0000";
  20:main.c        **** CY_ISR_PROTO(contar);
  21:main.c        **** CY_ISR(contar){
  28              		.loc 1 21 0
  29              		.cfi_startproc
  30              		@ args = 0, pretend = 0, frame = 0
  31              		@ frame_needed = 0, uses_anonymous_args = 0
  32 0000 08B5     		push	{r3, lr}
  33              		.cfi_def_cfa_offset 8
  34              		.cfi_offset 3, -8
  35              		.cfi_offset 14, -4
  22:main.c        ****     Counter_1_ReadStatusRegister();
ARM GAS  C:\Users\MIGUEL\AppData\Local\Temp\ccivZ9cy.s 			page 2


  36              		.loc 1 22 0
  37 0002 FFF7FEFF 		bl	Counter_1_ReadStatusRegister
  38              	.LVL0:
  23:main.c        ****     timer=1;
  39              		.loc 1 23 0
  40 0006 0122     		movs	r2, #1
  41 0008 014B     		ldr	r3, .L3
  42 000a 1A70     		strb	r2, [r3]
  43 000c 08BD     		pop	{r3, pc}
  44              	.L4:
  45 000e 00BF     		.align	2
  46              	.L3:
  47 0010 00000000 		.word	.LANCHOR0
  48              		.cfi_endproc
  49              	.LFE64:
  50              		.size	contar, .-contar
  51              		.section	.text.main,"ax",%progbits
  52              		.align	2
  53              		.global	main
  54              		.thumb
  55              		.thumb_func
  56              		.type	main, %function
  57              	main:
  58              	.LFB65:
  24:main.c        **** }
  25:main.c        **** 
  26:main.c        **** 
  27:main.c        **** int main(void)
  28:main.c        **** {
  59              		.loc 1 28 0
  60              		.cfi_startproc
  61              		@ Volatile: function does not return.
  62              		@ args = 0, pretend = 0, frame = 0
  63              		@ frame_needed = 0, uses_anonymous_args = 0
  64 0000 08B5     		push	{r3, lr}
  65              		.cfi_def_cfa_offset 8
  66              		.cfi_offset 3, -8
  67              		.cfi_offset 14, -4
  29:main.c        ****     CyGlobalIntEnable; /* Enable global interrupts. */
  68              		.loc 1 29 0
  69              		.syntax unified
  70              	@ 29 "main.c" 1
  71 0002 62B6     		CPSIE   i
  72              	@ 0 "" 2
  30:main.c        ****     LCD_Char_1_Start();
  73              		.loc 1 30 0
  74              		.thumb
  75              		.syntax unified
  76 0004 FFF7FEFF 		bl	LCD_Char_1_Start
  77              	.LVL1:
  31:main.c        ****     Counter_1_Start();
  78              		.loc 1 31 0
  79 0008 FFF7FEFF 		bl	Counter_1_Start
  80              	.LVL2:
  32:main.c        ****     isr_1_StartEx(contar);
  81              		.loc 1 32 0
  82 000c 1848     		ldr	r0, .L11
ARM GAS  C:\Users\MIGUEL\AppData\Local\Temp\ccivZ9cy.s 			page 3


  83 000e FFF7FEFF 		bl	isr_1_StartEx
  84              	.LVL3:
  85              	.L6:
  33:main.c        **** 
  34:main.c        ****     /* Place your initialization/startup code here (e.g. MyInst_Start()) */
  35:main.c        **** 
  36:main.c        ****     for(;;)
  37:main.c        ****     {
  38:main.c        ****         if (timer){
  86              		.loc 1 38 0
  87 0012 184B     		ldr	r3, .L11+4
  88 0014 1B78     		ldrb	r3, [r3]	@ zero_extendqisi2
  89 0016 002B     		cmp	r3, #0
  90 0018 FBD0     		beq	.L6
  39:main.c        ****         timer=0;
  91              		.loc 1 39 0
  92 001a 164A     		ldr	r2, .L11+4
  93 001c 0023     		movs	r3, #0
  94 001e 1370     		strb	r3, [r2]
  40:main.c        ****             mili++;
  95              		.loc 1 40 0
  96 0020 5388     		ldrh	r3, [r2, #2]
  97 0022 0133     		adds	r3, r3, #1
  98 0024 9BB2     		uxth	r3, r3
  99 0026 5380     		strh	r3, [r2, #2]	@ movhi
  41:main.c        ****             if (mili==1000){
 100              		.loc 1 41 0
 101 0028 B3F57A7F 		cmp	r3, #1000
 102 002c F1D1     		bne	.L6
  42:main.c        ****             mili=0;
 103              		.loc 1 42 0
 104 002e 1446     		mov	r4, r2
 105 0030 0025     		movs	r5, #0
 106 0032 5580     		strh	r5, [r2, #2]	@ movhi
  43:main.c        ****             LCD_Char_1_ClearDisplay();
 107              		.loc 1 43 0
 108 0034 0120     		movs	r0, #1
 109 0036 FFF7FEFF 		bl	LCD_Char_1_WriteControl
 110              	.LVL4:
  44:main.c        ****             LCD_Char_1_Position(0,0);
 111              		.loc 1 44 0
 112 003a 2946     		mov	r1, r5
 113 003c 2846     		mov	r0, r5
 114 003e FFF7FEFF 		bl	LCD_Char_1_Position
 115              	.LVL5:
  45:main.c        ****             sprintf(time,"Tiempo=%02d:%02d",min,seg);
 116              		.loc 1 45 0
 117 0042 0D4D     		ldr	r5, .L11+8
 118 0044 2379     		ldrb	r3, [r4, #4]	@ zero_extendqisi2
 119 0046 6279     		ldrb	r2, [r4, #5]	@ zero_extendqisi2
 120 0048 0C49     		ldr	r1, .L11+12
 121 004a 2846     		mov	r0, r5
 122 004c FFF7FEFF 		bl	sprintf
 123              	.LVL6:
  46:main.c        ****             LCD_Char_1_PrintString(time);
 124              		.loc 1 46 0
 125 0050 2846     		mov	r0, r5
ARM GAS  C:\Users\MIGUEL\AppData\Local\Temp\ccivZ9cy.s 			page 4


 126 0052 FFF7FEFF 		bl	LCD_Char_1_PrintString
 127              	.LVL7:
  47:main.c        ****             seg++;
 128              		.loc 1 47 0
 129 0056 2379     		ldrb	r3, [r4, #4]	@ zero_extendqisi2
 130 0058 0133     		adds	r3, r3, #1
 131 005a DBB2     		uxtb	r3, r3
 132 005c 2371     		strb	r3, [r4, #4]
  48:main.c        ****             if (seg==60){
 133              		.loc 1 48 0
 134 005e 3C2B     		cmp	r3, #60
 135 0060 D7D1     		bne	.L6
  49:main.c        ****             seg=0;
 136              		.loc 1 49 0
 137 0062 0022     		movs	r2, #0
 138 0064 2271     		strb	r2, [r4, #4]
  50:main.c        ****             min++;
 139              		.loc 1 50 0
 140 0066 6279     		ldrb	r2, [r4, #5]	@ zero_extendqisi2
 141 0068 0132     		adds	r2, r2, #1
 142 006a 6271     		strb	r2, [r4, #5]
 143 006c D1E7     		b	.L6
 144              	.L12:
 145 006e 00BF     		.align	2
 146              	.L11:
 147 0070 00000000 		.word	contar
 148 0074 00000000 		.word	.LANCHOR0
 149 0078 00000000 		.word	.LANCHOR1
 150 007c 00000000 		.word	.LC0
 151              		.cfi_endproc
 152              	.LFE65:
 153              		.size	main, .-main
 154              		.global	time
 155              		.global	timer
 156              		.global	mili
 157              		.global	min
 158              		.global	seg
 159              		.data
 160              		.align	2
 161              		.set	.LANCHOR1,. + 0
 162              		.type	time, %object
 163              		.size	time, 4
 164              	time:
 165 0000 30303030 		.ascii	"0000"
 166              		.section	.rodata.str1.4,"aMS",%progbits,1
 167              		.align	2
 168              	.LC0:
 169 0000 5469656D 		.ascii	"Tiempo=%02d:%02d\000"
 169      706F3D25 
 169      3032643A 
 169      25303264 
 169      00
 170              		.bss
 171              		.align	1
 172              		.set	.LANCHOR0,. + 0
 173              		.type	timer, %object
 174              		.size	timer, 1
ARM GAS  C:\Users\MIGUEL\AppData\Local\Temp\ccivZ9cy.s 			page 5


 175              	timer:
 176 0000 00       		.space	1
 177 0001 00       		.space	1
 178              		.type	mili, %object
 179              		.size	mili, 2
 180              	mili:
 181 0002 0000     		.space	2
 182              		.type	seg, %object
 183              		.size	seg, 1
 184              	seg:
 185 0004 00       		.space	1
 186              		.type	min, %object
 187              		.size	min, 1
 188              	min:
 189 0005 00       		.space	1
 190              		.text
 191              	.Letext0:
 192              		.file 2 "c:\\program files (x86)\\cypress\\psoc creator\\4.4\\psoc creator\\import\\gnu\\arm\\5.4.
 193              		.file 3 "c:\\program files (x86)\\cypress\\psoc creator\\4.4\\psoc creator\\import\\gnu\\arm\\5.4.
 194              		.file 4 "Generated_Source\\PSoC5/cytypes.h"
 195              		.file 5 "Generated_Source\\PSoC5/core_cm3.h"
 196              		.file 6 "Generated_Source\\PSoC5/Counter_1.h"
 197              		.file 7 "Generated_Source\\PSoC5/LCD_Char_1.h"
 198              		.file 8 "Generated_Source\\PSoC5/isr_1.h"
 199              		.file 9 "c:\\program files (x86)\\cypress\\psoc creator\\4.4\\psoc creator\\import\\gnu\\arm\\5.4.