ARM GAS  C:\Users\juanm\AppData\Local\Temp\ccYjDMMi.s 			page 1


   1              		.syntax unified
   2              		.cpu cortex-m3
   3              		.fpu softvfp
   4              		.eabi_attribute 20, 1
   5              		.eabi_attribute 21, 1
   6              		.eabi_attribute 23, 3
   7              		.eabi_attribute 24, 1
   8              		.eabi_attribute 25, 1
   9              		.eabi_attribute 26, 1
  10              		.eabi_attribute 30, 1
  11              		.eabi_attribute 34, 1
  12              		.eabi_attribute 18, 4
  13              		.thumb
  14              		.syntax unified
  15              		.file	"main.c"
  16              		.text
  17              	.Ltext0:
  18              		.cfi_sections	.debug_frame
  19              		.section	.text.contar,"ax",%progbits
  20              		.align	2
  21              		.global	contar
  22              		.thumb
  23              		.thumb_func
  24              		.type	contar, %function
  25              	contar:
  26              	.LFB64:
  27              		.file 1 "main.c"
   1:main.c        **** 
   2:main.c        **** #include "project.h"
   3:main.c        **** #include <stdio.h>
   4:main.c        **** #include <stdlib.h>
   5:main.c        **** uint8_t lectura=0;
   6:main.c        **** uint8_t bandera=0;
   7:main.c        **** int fl=50;
   8:main.c        **** int tem=26;
   9:main.c        **** #include "project.h"
  10:main.c        **** uint8 seg=0;
  11:main.c        **** uint8 h=0;
  12:main.c        **** uint8 min=0;
  13:main.c        **** uint16 mili=0;
  14:main.c        **** uint8 timer=0;
  15:main.c        **** uint16 c=0;
  16:main.c        **** char time[4]="0000";
  17:main.c        **** CY_ISR_PROTO(contar);
  18:main.c        **** CY_ISR(contar){
  28              		.loc 1 18 0
  29              		.cfi_startproc
  30              		@ args = 0, pretend = 0, frame = 0
  31              		@ frame_needed = 0, uses_anonymous_args = 0
  32              		@ link register save eliminated.
  19:main.c        ****     timer=1;
  33              		.loc 1 19 0
  34 0000 0122     		movs	r2, #1
  35 0002 014B     		ldr	r3, .L2
  36 0004 1A70     		strb	r2, [r3]
  37 0006 7047     		bx	lr
  38              	.L3:
ARM GAS  C:\Users\juanm\AppData\Local\Temp\ccYjDMMi.s 			page 2


  39              		.align	2
  40              	.L2:
  41 0008 00000000 		.word	.LANCHOR0
  42              		.cfi_endproc
  43              	.LFE64:
  44              		.size	contar, .-contar
  45              		.section	.text.dato,"ax",%progbits
  46              		.align	2
  47              		.global	dato
  48              		.thumb
  49              		.thumb_func
  50              		.type	dato, %function
  51              	dato:
  52              	.LFB65:
  20:main.c        **** }
  21:main.c        **** CY_ISR(dato){
  53              		.loc 1 21 0
  54              		.cfi_startproc
  55              		@ args = 0, pretend = 0, frame = 0
  56              		@ frame_needed = 0, uses_anonymous_args = 0
  57 0000 08B5     		push	{r3, lr}
  58              		.cfi_def_cfa_offset 8
  59              		.cfi_offset 3, -8
  60              		.cfi_offset 14, -4
  22:main.c        ****     lectura=UART_GetChar();
  61              		.loc 1 22 0
  62 0002 FFF7FEFF 		bl	UART_GetChar
  63              	.LVL0:
  64 0006 024B     		ldr	r3, .L6
  65 0008 5870     		strb	r0, [r3, #1]
  23:main.c        ****     bandera=1;
  66              		.loc 1 23 0
  67 000a 0122     		movs	r2, #1
  68 000c 9A70     		strb	r2, [r3, #2]
  69 000e 08BD     		pop	{r3, pc}
  70              	.L7:
  71              		.align	2
  72              	.L6:
  73 0010 00000000 		.word	.LANCHOR0
  74              		.cfi_endproc
  75              	.LFE65:
  76              		.size	dato, .-dato
  77              		.section	.text.ApagarLCD,"ax",%progbits
  78              		.align	2
  79              		.global	ApagarLCD
  80              		.thumb
  81              		.thumb_func
  82              		.type	ApagarLCD, %function
  83              	ApagarLCD:
  84              	.LFB66:
  24:main.c        **** }
  25:main.c        **** void ApagarLCD(){
  85              		.loc 1 25 0
  86              		.cfi_startproc
  87              		@ args = 0, pretend = 0, frame = 0
  88              		@ frame_needed = 0, uses_anonymous_args = 0
  89 0000 08B5     		push	{r3, lr}
ARM GAS  C:\Users\juanm\AppData\Local\Temp\ccYjDMMi.s 			page 3


  90              		.cfi_def_cfa_offset 8
  91              		.cfi_offset 3, -8
  92              		.cfi_offset 14, -4
  26:main.c        ****     LCD_Stop();
  93              		.loc 1 26 0
  94 0002 FFF7FEFF 		bl	LCD_Stop
  95              	.LVL1:
  96 0006 08BD     		pop	{r3, pc}
  97              		.cfi_endproc
  98              	.LFE66:
  99              		.size	ApagarLCD, .-ApagarLCD
 100              		.section	.text.EncenderLCD,"ax",%progbits
 101              		.align	2
 102              		.global	EncenderLCD
 103              		.thumb
 104              		.thumb_func
 105              		.type	EncenderLCD, %function
 106              	EncenderLCD:
 107              	.LFB67:
  27:main.c        **** }
  28:main.c        **** 
  29:main.c        **** void EncenderLCD(int fl,int tem,int h,int min, int sec){
 108              		.loc 1 29 0
 109              		.cfi_startproc
 110              		@ args = 4, pretend = 0, frame = 160
 111              		@ frame_needed = 0, uses_anonymous_args = 0
 112              	.LVL2:
 113 0000 F0B5     		push	{r4, r5, r6, r7, lr}
 114              		.cfi_def_cfa_offset 20
 115              		.cfi_offset 4, -20
 116              		.cfi_offset 5, -16
 117              		.cfi_offset 6, -12
 118              		.cfi_offset 7, -8
 119              		.cfi_offset 14, -4
 120 0002 ABB0     		sub	sp, sp, #172
 121              		.cfi_def_cfa_offset 192
 122 0004 0646     		mov	r6, r0
 123 0006 0F46     		mov	r7, r1
 124 0008 1446     		mov	r4, r2
 125 000a 1D46     		mov	r5, r3
  30:main.c        ****     Linterna_Write(0);
 126              		.loc 1 30 0
 127 000c 0020     		movs	r0, #0
 128              	.LVL3:
 129 000e FFF7FEFF 		bl	Linterna_Write
 130              	.LVL4:
  31:main.c        ****     LCD_DisplayOn();
 131              		.loc 1 31 0
 132 0012 0C20     		movs	r0, #12
 133 0014 FFF7FEFF 		bl	LCD_WriteControl
 134              	.LVL5:
  32:main.c        ****     LCD_ClearDisplay();
 135              		.loc 1 32 0
 136 0018 0120     		movs	r0, #1
 137 001a FFF7FEFF 		bl	LCD_WriteControl
 138              	.LVL6:
  33:main.c        ****     char temp[50];
ARM GAS  C:\Users\juanm\AppData\Local\Temp\ccYjDMMi.s 			page 4


  34:main.c        ****     char fluj[50];
  35:main.c        ****     char tiemp[50];
  36:main.c        ****     LCD_Position(0,0);
 139              		.loc 1 36 0
 140 001e 0021     		movs	r1, #0
 141 0020 0846     		mov	r0, r1
 142 0022 FFF7FEFF 		bl	LCD_Position
 143              	.LVL7:
  37:main.c        ****     sprintf(temp,"Temperatura:    %2d",tem);
 144              		.loc 1 37 0
 145 0026 3A46     		mov	r2, r7
 146 0028 1149     		ldr	r1, .L12
 147 002a 1DA8     		add	r0, sp, #116
 148 002c FFF7FEFF 		bl	sprintf
 149              	.LVL8:
  38:main.c        ****     LCD_PrintString(temp);
 150              		.loc 1 38 0
 151 0030 1DA8     		add	r0, sp, #116
 152 0032 FFF7FEFF 		bl	LCD_PrintString
 153              	.LVL9:
  39:main.c        ****     LCD_Position(1,0);
 154              		.loc 1 39 0
 155 0036 0021     		movs	r1, #0
 156 0038 0120     		movs	r0, #1
 157 003a FFF7FEFF 		bl	LCD_Position
 158              	.LVL10:
  40:main.c        ****     sprintf(fluj,"Flujo:           %2d%%",fl);
 159              		.loc 1 40 0
 160 003e 3246     		mov	r2, r6
 161 0040 0C49     		ldr	r1, .L12+4
 162 0042 10A8     		add	r0, sp, #64
 163 0044 FFF7FEFF 		bl	sprintf
 164              	.LVL11:
  41:main.c        ****     LCD_PrintString(fluj);
 165              		.loc 1 41 0
 166 0048 10A8     		add	r0, sp, #64
 167 004a FFF7FEFF 		bl	LCD_PrintString
 168              	.LVL12:
  42:main.c        ****     LCD_Position(3,0);
 169              		.loc 1 42 0
 170 004e 0021     		movs	r1, #0
 171 0050 0320     		movs	r0, #3
 172 0052 FFF7FEFF 		bl	LCD_Position
 173              	.LVL13:
  43:main.c        ****     sprintf(tiemp,"Tiempo:     %02d:%02d:%02d",h,min,sec);
 174              		.loc 1 43 0
 175 0056 309B     		ldr	r3, [sp, #192]
 176 0058 0093     		str	r3, [sp]
 177 005a 2B46     		mov	r3, r5
 178 005c 2246     		mov	r2, r4
 179 005e 0649     		ldr	r1, .L12+8
 180 0060 03A8     		add	r0, sp, #12
 181 0062 FFF7FEFF 		bl	sprintf
 182              	.LVL14:
  44:main.c        ****     LCD_PrintString(tiemp);
 183              		.loc 1 44 0
 184 0066 03A8     		add	r0, sp, #12
ARM GAS  C:\Users\juanm\AppData\Local\Temp\ccYjDMMi.s 			page 5


 185 0068 FFF7FEFF 		bl	LCD_PrintString
 186              	.LVL15:
  45:main.c        **** }
 187              		.loc 1 45 0
 188 006c 2BB0     		add	sp, sp, #172
 189              		.cfi_def_cfa_offset 20
 190              		@ sp needed
 191 006e F0BD     		pop	{r4, r5, r6, r7, pc}
 192              	.LVL16:
 193              	.L13:
 194              		.align	2
 195              	.L12:
 196 0070 00000000 		.word	.LC0
 197 0074 14000000 		.word	.LC1
 198 0078 2C000000 		.word	.LC2
 199              		.cfi_endproc
 200              	.LFE67:
 201              		.size	EncenderLCD, .-EncenderLCD
 202              		.section	.text.main,"ax",%progbits
 203              		.align	2
 204              		.global	main
 205              		.thumb
 206              		.thumb_func
 207              		.type	main, %function
 208              	main:
 209              	.LFB68:
  46:main.c        **** int main(void)
  47:main.c        **** {
 210              		.loc 1 47 0
 211              		.cfi_startproc
 212              		@ Volatile: function does not return.
 213              		@ args = 0, pretend = 0, frame = 0
 214              		@ frame_needed = 0, uses_anonymous_args = 0
 215 0000 00B5     		push	{lr}
 216              		.cfi_def_cfa_offset 4
 217              		.cfi_offset 14, -4
 218 0002 83B0     		sub	sp, sp, #12
 219              		.cfi_def_cfa_offset 16
  48:main.c        ****     CyGlobalIntEnable; /* Enable global interrupts. */
 220              		.loc 1 48 0
 221              		.syntax unified
 222              	@ 48 "main.c" 1
 223 0004 62B6     		CPSIE   i
 224              	@ 0 "" 2
  49:main.c        ****     LCD_Start();
 225              		.loc 1 49 0
 226              		.thumb
 227              		.syntax unified
 228 0006 FFF7FEFF 		bl	LCD_Start
 229              	.LVL17:
  50:main.c        ****     UART_Start();
 230              		.loc 1 50 0
 231 000a FFF7FEFF 		bl	UART_Start
 232              	.LVL18:
  51:main.c        ****     isr_1_StartEx(dato);
 233              		.loc 1 51 0
 234 000e 3548     		ldr	r0, .L23
ARM GAS  C:\Users\juanm\AppData\Local\Temp\ccYjDMMi.s 			page 6


 235 0010 FFF7FEFF 		bl	isr_1_StartEx
 236              	.LVL19:
  52:main.c        ****     Counter_1_Start();
 237              		.loc 1 52 0
 238 0014 FFF7FEFF 		bl	Counter_1_Start
 239              	.LVL20:
  53:main.c        ****     isr_2_StartEx(contar);
 240              		.loc 1 53 0
 241 0018 3348     		ldr	r0, .L23+4
 242 001a FFF7FEFF 		bl	isr_2_StartEx
 243              	.LVL21:
 244              	.L15:
  54:main.c        ****     for(;;)
  55:main.c        ****     {  
  56:main.c        ****         if (bandera){
 245              		.loc 1 56 0
 246 001e 334B     		ldr	r3, .L23+8
 247 0020 9B78     		ldrb	r3, [r3, #2]	@ zero_extendqisi2
 248 0022 002B     		cmp	r3, #0
 249 0024 FBD0     		beq	.L15
  57:main.c        ****             if (lectura=='a'){ 
 250              		.loc 1 57 0
 251 0026 314B     		ldr	r3, .L23+8
 252 0028 5B78     		ldrb	r3, [r3, #1]	@ zero_extendqisi2
 253 002a 612B     		cmp	r3, #97
 254 002c 2BD1     		bne	.L16
  58:main.c        ****                 if (timer){
 255              		.loc 1 58 0
 256 002e 2F4B     		ldr	r3, .L23+8
 257 0030 1B78     		ldrb	r3, [r3]	@ zero_extendqisi2
 258 0032 43B3     		cbz	r3, .L16
  59:main.c        ****                     timer=0;
 259              		.loc 1 59 0
 260 0034 2D4A     		ldr	r2, .L23+8
 261 0036 0023     		movs	r3, #0
 262 0038 1370     		strb	r3, [r2]
  60:main.c        ****                     mili++;
 263              		.loc 1 60 0
 264 003a 9388     		ldrh	r3, [r2, #4]
 265 003c 0133     		adds	r3, r3, #1
 266 003e 9BB2     		uxth	r3, r3
 267 0040 9380     		strh	r3, [r2, #4]	@ movhi
  61:main.c        ****                     if (mili==1000){
 268              		.loc 1 61 0
 269 0042 B3F57A7F 		cmp	r3, #1000
 270 0046 1ED1     		bne	.L16
  62:main.c        ****                         mili=0;                 
 271              		.loc 1 62 0
 272 0048 1446     		mov	r4, r2
 273 004a 0023     		movs	r3, #0
 274 004c 9380     		strh	r3, [r2, #4]	@ movhi
  63:main.c        ****                         EncenderLCD(fl,tem,h,min,seg);  
 275              		.loc 1 63 0
 276 004e 9379     		ldrb	r3, [r2, #6]	@ zero_extendqisi2
 277 0050 D279     		ldrb	r2, [r2, #7]	@ zero_extendqisi2
 278 0052 2748     		ldr	r0, .L23+12
 279 0054 0168     		ldr	r1, [r0]
ARM GAS  C:\Users\juanm\AppData\Local\Temp\ccYjDMMi.s 			page 7


 280 0056 4068     		ldr	r0, [r0, #4]
 281 0058 257A     		ldrb	r5, [r4, #8]	@ zero_extendqisi2
 282 005a 0095     		str	r5, [sp]
 283 005c FFF7FEFF 		bl	EncenderLCD
 284              	.LVL22:
  64:main.c        ****                         seg++;
 285              		.loc 1 64 0
 286 0060 237A     		ldrb	r3, [r4, #8]	@ zero_extendqisi2
 287 0062 0133     		adds	r3, r3, #1
 288 0064 DBB2     		uxtb	r3, r3
 289 0066 2372     		strb	r3, [r4, #8]
  65:main.c        ****                         if (seg==60){
 290              		.loc 1 65 0
 291 0068 3C2B     		cmp	r3, #60
 292 006a 0CD1     		bne	.L16
  66:main.c        ****                             seg=0;
 293              		.loc 1 66 0
 294 006c 0023     		movs	r3, #0
 295 006e 2372     		strb	r3, [r4, #8]
  67:main.c        ****                             min++;
 296              		.loc 1 67 0
 297 0070 A379     		ldrb	r3, [r4, #6]	@ zero_extendqisi2
 298 0072 0133     		adds	r3, r3, #1
 299 0074 DBB2     		uxtb	r3, r3
 300 0076 A371     		strb	r3, [r4, #6]
  68:main.c        ****                             if (min==60){
 301              		.loc 1 68 0
 302 0078 3C2B     		cmp	r3, #60
 303 007a 04D1     		bne	.L16
  69:main.c        ****                                 min=0;
 304              		.loc 1 69 0
 305 007c 0022     		movs	r2, #0
 306 007e A271     		strb	r2, [r4, #6]
  70:main.c        ****                                 h++;
 307              		.loc 1 70 0
 308 0080 E279     		ldrb	r2, [r4, #7]	@ zero_extendqisi2
 309 0082 0132     		adds	r2, r2, #1
 310 0084 E271     		strb	r2, [r4, #7]
 311              	.L16:
  71:main.c        ****                             }
  72:main.c        ****                             
  73:main.c        ****                             }
  74:main.c        ****                         }                   
  75:main.c        ****                   }
  76:main.c        ****                     }
  77:main.c        ****             if (lectura=='b'){
 312              		.loc 1 77 0
 313 0086 194B     		ldr	r3, .L23+8
 314 0088 5B78     		ldrb	r3, [r3, #1]	@ zero_extendqisi2
 315 008a 622B     		cmp	r3, #98
 316 008c C7D1     		bne	.L15
  78:main.c        ****                 //bandera=0;
  79:main.c        ****                 mili=0;
 317              		.loc 1 79 0
 318 008e 174B     		ldr	r3, .L23+8
 319 0090 0022     		movs	r2, #0
 320 0092 9A80     		strh	r2, [r3, #4]	@ movhi
ARM GAS  C:\Users\juanm\AppData\Local\Temp\ccYjDMMi.s 			page 8


  80:main.c        ****                 seg=0;
 321              		.loc 1 80 0
 322 0094 1A72     		strb	r2, [r3, #8]
  81:main.c        ****                 min=0;
 323              		.loc 1 81 0
 324 0096 9A71     		strb	r2, [r3, #6]
  82:main.c        ****                 h=0;
 325              		.loc 1 82 0
 326 0098 DA71     		strb	r2, [r3, #7]
  83:main.c        ****                 if (timer){
 327              		.loc 1 83 0
 328 009a 1B78     		ldrb	r3, [r3]	@ zero_extendqisi2
 329 009c 002B     		cmp	r3, #0
 330 009e BED0     		beq	.L15
  84:main.c        ****                     timer=0;
 331              		.loc 1 84 0
 332 00a0 124A     		ldr	r2, .L23+8
 333 00a2 0023     		movs	r3, #0
 334 00a4 1370     		strb	r3, [r2]
  85:main.c        ****                     c++;
 335              		.loc 1 85 0
 336 00a6 5389     		ldrh	r3, [r2, #10]
 337 00a8 0133     		adds	r3, r3, #1
 338 00aa 9BB2     		uxth	r3, r3
 339 00ac 5381     		strh	r3, [r2, #10]	@ movhi
  86:main.c        ****                     if (c==1000){
 340              		.loc 1 86 0
 341 00ae B3F57A7F 		cmp	r3, #1000
 342 00b2 0BD1     		bne	.L19
  87:main.c        ****                         Linterna_Write(!Linterna_Read());
 343              		.loc 1 87 0
 344 00b4 FFF7FEFF 		bl	Linterna_Read
 345              	.LVL23:
 346 00b8 B0FA80F0 		clz	r0, r0
 347 00bc 4009     		lsrs	r0, r0, #5
 348 00be FFF7FEFF 		bl	Linterna_Write
 349              	.LVL24:
  88:main.c        ****                         ApagarLCD();
 350              		.loc 1 88 0
 351 00c2 FFF7FEFF 		bl	ApagarLCD
 352              	.LVL25:
  89:main.c        ****                         c=0;
 353              		.loc 1 89 0
 354 00c6 0022     		movs	r2, #0
 355 00c8 084B     		ldr	r3, .L23+8
 356 00ca 5A81     		strh	r2, [r3, #10]	@ movhi
 357              	.L19:
  90:main.c        ****                     }
  91:main.c        ****                     if (c==500){
 358              		.loc 1 91 0
 359 00cc 074B     		ldr	r3, .L23+8
 360 00ce 5B89     		ldrh	r3, [r3, #10]
 361 00d0 B3F5FA7F 		cmp	r3, #500
 362 00d4 A3D1     		bne	.L15
  92:main.c        ****                        LCD_ClearDisplay();
 363              		.loc 1 92 0
 364 00d6 0120     		movs	r0, #1
ARM GAS  C:\Users\juanm\AppData\Local\Temp\ccYjDMMi.s 			page 9


 365 00d8 FFF7FEFF 		bl	LCD_WriteControl
 366              	.LVL26:
  93:main.c        ****                        LCD_PrintString("Dispositivo apagado");
 367              		.loc 1 93 0
 368 00dc 0548     		ldr	r0, .L23+16
 369 00de FFF7FEFF 		bl	LCD_PrintString
 370              	.LVL27:
 371 00e2 9CE7     		b	.L15
 372              	.L24:
 373              		.align	2
 374              	.L23:
 375 00e4 00000000 		.word	dato
 376 00e8 00000000 		.word	contar
 377 00ec 00000000 		.word	.LANCHOR0
 378 00f0 00000000 		.word	.LANCHOR1
 379 00f4 48000000 		.word	.LC3
 380              		.cfi_endproc
 381              	.LFE68:
 382              		.size	main, .-main
 383              		.global	time
 384              		.global	c
 385              		.global	timer
 386              		.global	mili
 387              		.global	min
 388              		.global	h
 389              		.global	seg
 390              		.global	tem
 391              		.global	fl
 392              		.global	bandera
 393              		.global	lectura
 394              		.data
 395              		.align	2
 396              		.set	.LANCHOR1,. + 0
 397              		.type	tem, %object
 398              		.size	tem, 4
 399              	tem:
 400 0000 1A000000 		.word	26
 401              		.type	fl, %object
 402              		.size	fl, 4
 403              	fl:
 404 0004 32000000 		.word	50
 405              		.type	time, %object
 406              		.size	time, 4
 407              	time:
 408 0008 30303030 		.ascii	"0000"
 409              		.section	.rodata.str1.4,"aMS",%progbits,1
 410              		.align	2
 411              	.LC0:
 412 0000 54656D70 		.ascii	"Temperatura:    %2d\000"
 412      65726174 
 412      7572613A 
 412      20202020 
 412      25326400 
 413              	.LC1:
 414 0014 466C756A 		.ascii	"Flujo:           %2d%%\000"
 414      6F3A2020 
 414      20202020 
ARM GAS  C:\Users\juanm\AppData\Local\Temp\ccYjDMMi.s 			page 10


 414      20202020 
 414      20253264 
 415 002b 00       		.space	1
 416              	.LC2:
 417 002c 5469656D 		.ascii	"Tiempo:     %02d:%02d:%02d\000"
 417      706F3A20 
 417      20202020 
 417      25303264 
 417      3A253032 
 418 0047 00       		.space	1
 419              	.LC3:
 420 0048 44697370 		.ascii	"Dispositivo apagado\000"
 420      6F736974 
 420      69766F20 
 420      61706167 
 420      61646F00 
 421              		.bss
 422              		.align	1
 423              		.set	.LANCHOR0,. + 0
 424              		.type	timer, %object
 425              		.size	timer, 1
 426              	timer:
 427 0000 00       		.space	1
 428              		.type	lectura, %object
 429              		.size	lectura, 1
 430              	lectura:
 431 0001 00       		.space	1
 432              		.type	bandera, %object
 433              		.size	bandera, 1
 434              	bandera:
 435 0002 00       		.space	1
 436 0003 00       		.space	1
 437              		.type	mili, %object
 438              		.size	mili, 2
 439              	mili:
 440 0004 0000     		.space	2
 441              		.type	min, %object
 442              		.size	min, 1
 443              	min:
 444 0006 00       		.space	1
 445              		.type	h, %object
 446              		.size	h, 1
 447              	h:
 448 0007 00       		.space	1
 449              		.type	seg, %object
 450              		.size	seg, 1
 451              	seg:
 452 0008 00       		.space	1
 453 0009 00       		.space	1
 454              		.type	c, %object
 455              		.size	c, 2
 456              	c:
 457 000a 0000     		.space	2
 458              		.text
 459              	.Letext0:
 460              		.file 2 "c:\\program files (x86)\\cypress\\psoc creator\\4.4\\psoc creator\\import\\gnu\\arm\\5.4.
 461              		.file 3 "c:\\program files (x86)\\cypress\\psoc creator\\4.4\\psoc creator\\import\\gnu\\arm\\5.4.
ARM GAS  C:\Users\juanm\AppData\Local\Temp\ccYjDMMi.s 			page 11


 462              		.file 4 "Generated_Source\\PSoC5/cytypes.h"
 463              		.file 5 "Generated_Source\\PSoC5/core_cm3.h"
 464              		.file 6 "Generated_Source\\PSoC5/UART.h"
 465              		.file 7 "Generated_Source\\PSoC5/LCD.h"
 466              		.file 8 "Generated_Source\\PSoC5/Linterna.h"
 467              		.file 9 "c:\\program files (x86)\\cypress\\psoc creator\\4.4\\psoc creator\\import\\gnu\\arm\\5.4.
 468              		.file 10 "Generated_Source\\PSoC5/isr_1.h"
 469              		.file 11 "Generated_Source\\PSoC5/Counter_1.h"
 470              		.file 12 "Generated_Source\\PSoC5/isr_2.h"